 bcrypt_lib

 Timestamp is 57db8051 (Thu Sep 15 22:17:05 2016)

 Preferred load address is 0000000180000000

 Start         Length     Name                   Class
 0001:00000000 00000013H .text$di                CODE
 0001:00000020 00012a28H .text$mn                CODE
 0001:00012a50 000002a2H .text$x                 CODE
 0001:00012d00 00000000H .text$yd                CODE
 0002:00000000 00000228H .idata$5                DATA
 0002:00000228 00000008H .CRT$XCA                DATA
 0002:00000230 00000018H .CRT$XCU                DATA
 0002:00000248 00000008H .CRT$XCZ                DATA
 0002:00000250 00000008H .CRT$XIA                DATA
 0002:00000258 00000020H .CRT$XIC                DATA
 0002:00000278 00000008H .CRT$XIZ                DATA
 0002:00000280 00000008H .CRT$XPA                DATA
 0002:00000288 00000010H .CRT$XPX                DATA
 0002:00000298 00000008H .CRT$XPXA               DATA
 0002:000002a0 00000008H .CRT$XPZ                DATA
 0002:000002a8 00000008H .CRT$XTA                DATA
 0002:000002b0 00000008H .CRT$XTZ                DATA
 0002:000002c0 00008700H .rdata                  DATA
 0002:000089c0 000000acH .rdata$debug            DATA
 0002:00008a70 000002fcH .rdata$r                DATA
 0002:00008d70 00000008H .rtc$IAA                DATA
 0002:00008d78 00000008H .rtc$IZZ                DATA
 0002:00008d80 00000008H .rtc$TAA                DATA
 0002:00008d88 00000008H .rtc$TZZ                DATA
 0002:00008d90 00000ea0H .xdata                  DATA
 0002:00009c30 0000017cH .xdata$x                DATA
 0002:00009dac 00000020H .didat$2                DATA
 0002:00009dcc 00000020H .didat$3                DATA
 0002:00009df0 00000160H .didat$4                DATA
 0002:00009f50 00000b6cH .didat$6                DATA
 0002:0000aac0 00000160H .didat$7                DATA
 0002:0000ac20 00000058H .edata                  DATA
 0002:0000ac78 00000014H .idata$2                DATA
 0002:0000ac8c 00000014H .idata$3                DATA
 0002:0000aca0 00000228H .idata$4                DATA
 0002:0000aec8 00000500H .idata$6                DATA
 0003:00000000 00001898H .data                   DATA
 0003:00001898 000000e7H .data$r                 DATA
 0003:00001980 00000160H .didat$5                DATA
 0003:00001ae0 000024a8H .bss                    DATA
 0004:00000000 00000f54H .pdata                  DATA
 0005:00000000 00000058H .rsrc$01                DATA
 0005:00000060 00000180H .rsrc$02                DATA

  Address         Publics by Value              Rva+Base               Lib:Object

 0000:00000000       ___safe_se_handler_count   0000000000000000     <absolute>
 0000:00000000       __guard_fids_table         0000000000000000     <absolute>
 0000:00000000       ___safe_se_handler_table   0000000000000000     <absolute>
 0000:00000000       __guard_flags              0000000000000000     <absolute>
 0000:00000000       __guard_fids_count         0000000000000000     <absolute>
 0000:00000000       __ImageBase                0000000180000000     <linker-defined>
 0001:00000020       ?Blowfish_encipher@@YAXPEAUBlowfishContext@@PEAI1@Z 0000000180001020 f   blowfish.obj
 0001:000004d0       ?Blowfish_expand0state@@YAXPEAUBlowfishContext@@PEBEG@Z 00000001800014d0 f   blowfish.obj
 0001:000005e0       ?Blowfish_expandstate@@YAXPEAUBlowfishContext@@PEBEG1G@Z 00000001800015e0 f   blowfish.obj
 0001:000008c0       ?bcrypt@@YAXPEBD0PEAD@Z    00000001800018c0 f   bcrypt.obj
 0001:00001030       ?New@?$Factory@VFunctionTemplate@v8@@@imp@Nan@@SA?AV?$Local@VFunctionTemplate@v8@@@v8@@P6AXAEBV?$FunctionCallbackInfo@VValue@v8@@@3@@ZV?$Local@VValue@v8@@@5@V?$Local@VSignature@v8@@@5@@Z 0000000180002030 f i bcrypt_node.obj
 0001:000011c0       ?ThrowError@Nan@@YAXPEBD@Z 00000001800021c0 f i bcrypt_node.obj
 0001:00001250       ?ThrowTypeError@Nan@@YAXPEBD@Z 0000000180002250 f i bcrypt_node.obj
 0001:000012e0       ??0Utf8String@Nan@@QEAA@V?$Local@VValue@v8@@@v8@@@Z 00000001800022e0 f i bcrypt_node.obj
 0001:000013d0       ??0Callback@Nan@@QEAA@AEBV?$Local@VFunction@v8@@@v8@@@Z 00000001800023d0 f i bcrypt_node.obj
 0001:00001480       ?SetFunction@Callback@Nan@@QEAAXAEBV?$Local@VFunction@v8@@@v8@@@Z 0000000180002480 f i bcrypt_node.obj
 0001:00001510       ??0AsyncWorker@Nan@@QEAA@PEAVCallback@1@@Z 0000000180002510 f i bcrypt_node.obj
 0001:000015d0       ??1AsyncWorker@Nan@@UEAA@XZ 00000001800025d0 f i bcrypt_node.obj
 0001:00001670       ?WorkComplete@AsyncWorker@Nan@@UEAAXXZ 0000000180002670 f i bcrypt_node.obj
 0001:00001700       ?Destroy@AsyncWorker@Nan@@UEAAXXZ 0000000180002700 f i bcrypt_node.obj
 0001:00001720       ?HandleOKCallback@AsyncWorker@Nan@@MEAAXXZ 0000000180002720 f i bcrypt_node.obj
 0001:000017e0       ?HandleErrorCallback@AsyncWorker@Nan@@MEAAXXZ 00000001800027e0 f i bcrypt_node.obj
 0001:00001930       ??_EAsyncWorker@Nan@@UEAAPEAXI@Z 0000000180002930 f i * CIL library *:* CIL module *
 0001:00001930       ??_GAsyncWorker@Nan@@UEAAPEAXI@Z 0000000180002930 f i bcrypt_node.obj
 0001:00001960       ?AsyncExecute@Nan@@YAXPEAUuv_work_s@@@Z 0000000180002960 f i bcrypt_node.obj
 0001:00001970       ?AsyncExecuteComplete@Nan@@YAXPEAUuv_work_s@@@Z 0000000180002970 f i bcrypt_node.obj
 0001:000019a0       ?Export@Nan@@YAXV?$Local@VObject@v8@@@v8@@PEBDP6AXAEBV?$FunctionCallbackInfo@VValue@v8@@@1@@Z@Z 00000001800029a0 f i bcrypt_node.obj
 0001:00001a90       ?ValidateSalt@?A0x134cc3bc@@YA_NPEBD@Z 0000000180002a90 f   bcrypt_node.obj
 0001:00001b10       ??0SaltAsyncWorker@?A0x134cc3bc@@QEAA@PEAVCallback@Nan@@V?$basic_string@DU?$char_traits@D@std@@V?$allocator@D@2@@std@@_J@Z 0000000180002b10 f i bcrypt_node.obj
 0001:00001bc0       ??1SaltAsyncWorker@?A0x134cc3bc@@UEAA@XZ 0000000180002bc0 f i bcrypt_node.obj
 0001:00001c50       ?Execute@SaltAsyncWorker@?A0x134cc3bc@@UEAAXXZ 0000000180002c50 f i bcrypt_node.obj
 0001:00001dd0       ?HandleOKCallback@SaltAsyncWorker@?A0x134cc3bc@@UEAAXXZ 0000000180002dd0 f i bcrypt_node.obj
 0001:00001f30       ??_GSaltAsyncWorker@?A0x134cc3bc@@UEAAPEAXI@Z 0000000180002f30 f i bcrypt_node.obj
 0001:00001f30       ??_ESaltAsyncWorker@?A0x134cc3bc@@UEAAPEAXI@Z 0000000180002f30 f i * CIL library *:* CIL module *
 0001:00001f60       ?GenerateSalt@?A0x134cc3bc@@YAXAEBV?$FunctionCallbackInfo@VValue@v8@@@Nan@@@Z 0000000180002f60 f   bcrypt_node.obj
 0001:00002200       ?GenerateSaltSync@?A0x134cc3bc@@YAXAEBV?$FunctionCallbackInfo@VValue@v8@@@Nan@@@Z 0000000180003200 f   bcrypt_node.obj
 0001:00002470       ??0EncryptAsyncWorker@?A0x134cc3bc@@QEAA@PEAVCallback@Nan@@V?$basic_string@DU?$char_traits@D@std@@V?$allocator@D@2@@std@@1@Z 0000000180003470 f i bcrypt_node.obj
 0001:00002560       ??1EncryptAsyncWorker@?A0x134cc3bc@@UEAA@XZ 0000000180003560 f i bcrypt_node.obj
 0001:00002650       ?Execute@EncryptAsyncWorker@?A0x134cc3bc@@UEAAXXZ 0000000180003650 f i bcrypt_node.obj
 0001:000027d0       ?HandleOKCallback@EncryptAsyncWorker@?A0x134cc3bc@@UEAAXXZ 00000001800037d0 f i bcrypt_node.obj
 0001:000029b0       ??_EEncryptAsyncWorker@?A0x134cc3bc@@UEAAPEAXI@Z 00000001800039b0 f i * CIL library *:* CIL module *
 0001:000029b0       ??_GEncryptAsyncWorker@?A0x134cc3bc@@UEAAPEAXI@Z 00000001800039b0 f i bcrypt_node.obj
 0001:000029e0       ?Encrypt@?A0x134cc3bc@@YAXAEBV?$FunctionCallbackInfo@VValue@v8@@@Nan@@@Z 00000001800039e0 f   bcrypt_node.obj
 0001:00002ca0       ?EncryptSync@?A0x134cc3bc@@YAXAEBV?$FunctionCallbackInfo@VValue@v8@@@Nan@@@Z 0000000180003ca0 f   bcrypt_node.obj
 0001:00002f10       ??0CompareAsyncWorker@?A0x134cc3bc@@QEAA@PEAVCallback@Nan@@V?$basic_string@DU?$char_traits@D@std@@V?$allocator@D@2@@std@@1@Z 0000000180003f10 f i bcrypt_node.obj
 0001:00002fe0       ??1CompareAsyncWorker@?A0x134cc3bc@@UEAA@XZ 0000000180003fe0 f i bcrypt_node.obj
 0001:00003070       ?Execute@CompareAsyncWorker@?A0x134cc3bc@@UEAAXXZ 0000000180004070 f i bcrypt_node.obj
 0001:000031c0       ?HandleOKCallback@CompareAsyncWorker@?A0x134cc3bc@@UEAAXXZ 00000001800041c0 f i bcrypt_node.obj
 0001:00003300       ??_ECompareAsyncWorker@?A0x134cc3bc@@UEAAPEAXI@Z 0000000180004300 f i * CIL library *:* CIL module *
 0001:00003300       ??_GCompareAsyncWorker@?A0x134cc3bc@@UEAAPEAXI@Z 0000000180004300 f i bcrypt_node.obj
 0001:00003330       ?Compare@?A0x134cc3bc@@YAXAEBV?$FunctionCallbackInfo@VValue@v8@@@Nan@@@Z 0000000180004330 f   bcrypt_node.obj
 0001:000035f0       ?CompareSync@?A0x134cc3bc@@YAXAEBV?$FunctionCallbackInfo@VValue@v8@@@Nan@@@Z 00000001800045f0 f   bcrypt_node.obj
 0001:000038e0       ?GetRounds@?A0x134cc3bc@@YAXAEBV?$FunctionCallbackInfo@VValue@v8@@@Nan@@@Z 00000001800048e0 f   bcrypt_node.obj
 0001:00003b50       ?init@@YAXV?$Local@VObject@v8@@@v8@@@Z 0000000180004b50 f   bcrypt_node.obj
 0001:00003c20       ?assign@?$basic_string@DU?$char_traits@D@std@@V?$allocator@D@2@@std@@QEAAAEAV12@AEBV12@_K1@Z 0000000180004c20 f i bcrypt_node.obj
 0001:00003d50       ?assign@?$basic_string@DU?$char_traits@D@std@@V?$allocator@D@2@@std@@QEAAAEAV12@PEBD_K@Z 0000000180004d50 f i bcrypt_node.obj
 0001:00003e90       ?erase@?$basic_string@DU?$char_traits@D@std@@V?$allocator@D@2@@std@@QEAAAEAV12@_K0@Z 0000000180004e90 f i bcrypt_node.obj
 0001:00003f60       ?_Copy@?$basic_string@DU?$char_traits@D@std@@V?$allocator@D@2@@std@@QEAAX_K0@Z 0000000180004f60 f i bcrypt_node.obj
 0001:0000409c       __imp_load_?Encode@node@@YA?AV?$Local@VValue@v8@@@v8@@PEAVIsolate@3@PEBD_KW4encoding@1@@Z 000000018000509c f   node:node.exe
 0001:000040a8       __tailMerge_node_exe       00000001800050a8 f i node:node.exe
 0001:00004121       __imp_load_?Length@Buffer@node@@YA_KV?$Local@VObject@v8@@@v8@@@Z 0000000180005121 f   node:node.exe
 0001:0000412d       __imp_load_?Data@Buffer@node@@YAPEADV?$Local@VObject@v8@@@v8@@@Z 000000018000512d f   node:node.exe
 0001:00004139       __imp_load_?HasInstance@Buffer@node@@YA_NV?$Local@VValue@v8@@@v8@@@Z 0000000180005139 f   node:node.exe
 0001:00004145       __imp_load_node_module_register 0000000180005145 f   node:node.exe
 0001:00004151       __imp_load_?MakeCallback@node@@YA?AV?$Local@VValue@v8@@@v8@@PEAVIsolate@3@V?$Local@VObject@v8@@@3@V?$Local@VFunction@v8@@@3@HPEAV23@@Z 0000000180005151 f   node:node.exe
 0001:0000415d       __imp_load_uv_default_loop 000000018000515d f   node:node.exe
 0001:00004169       __imp_load_?Global@Context@v8@@QEAA?AV?$Local@VObject@v8@@@2@XZ 0000000180005169 f   node:node.exe
 0001:00004175       __imp_load_?ToLocalEmpty@V8@v8@@CAXXZ 0000000180005175 f   node:node.exe
 0001:00004181       __imp_load_?DisposeGlobal@V8@v8@@CAXPEAPEAVObject@internal@2@@Z 0000000180005181 f   node:node.exe
 0001:0000418d       __imp_load_?GlobalizeReference@V8@v8@@CAPEAPEAVObject@internal@2@PEAVIsolate@42@PEAPEAV342@@Z 000000018000518d f   node:node.exe
 0001:00004199       __imp_load_?Escape@EscapableHandleScope@v8@@AEAAPEAPEAVObject@internal@2@PEAPEAV342@@Z 0000000180005199 f   node:node.exe
 0001:000041a5       __imp_load_??0EscapableHandleScope@v8@@QEAA@PEAVIsolate@1@@Z 00000001800051a5 f   node:node.exe
 0001:000041b1       __imp_load_?Int32Value@Value@v8@@QEBA?AV?$Maybe@H@2@V?$Local@VContext@v8@@@2@@Z 00000001800051b1 f   node:node.exe
 0001:000041bd       __imp_load_?ToUint32@Value@v8@@QEBA?AV?$MaybeLocal@VUint32@v8@@@2@V?$Local@VContext@v8@@@2@@Z 00000001800051bd f   node:node.exe
 0001:000041c9       __imp_load_?GetFunction@FunctionTemplate@v8@@QEAA?AV?$MaybeLocal@VFunction@v8@@@2@V?$Local@VContext@v8@@@2@@Z 00000001800051c9 f   node:node.exe
 0001:000041d5       __imp_load_?New@FunctionTemplate@v8@@SA?AV?$Local@VFunctionTemplate@v8@@@2@PEAVIsolate@2@P6AXAEBV?$FunctionCallbackInfo@VValue@v8@@@2@@ZV?$Local@VValue@v8@@@2@V?$Local@VSignature@v8@@@2@H@Z 00000001800051d5 f   node:node.exe
 0001:000041e1       __imp_load_?Error@Exception@v8@@SA?AV?$Local@VValue@v8@@@2@V?$Local@VString@v8@@@2@@Z 00000001800051e1 f   node:node.exe
 0001:000041ed       __imp_load_?TypeError@Exception@v8@@SA?AV?$Local@VValue@v8@@@2@V?$Local@VString@v8@@@2@@Z 00000001800051ed f   node:node.exe
 0001:000041f9       __imp_load_?NewFromUtf8@String@v8@@SA?AV?$MaybeLocal@VString@v8@@@2@PEAVIsolate@2@PEBDW4NewStringType@2@H@Z 00000001800051f9 f   node:node.exe
 0001:00004205       __imp_load_?WriteUtf8@String@v8@@QEBAHPEADHPEAHH@Z 0000000180005205 f   node:node.exe
 0001:00004211       __imp_load_?Length@String@v8@@QEBAHXZ 0000000180005211 f   node:node.exe
 0001:0000421d       __imp_load_?CreateHandle@HandleScope@v8@@KAPEAPEAVObject@internal@2@PEAVIsolate@42@PEAV342@@Z 000000018000521d f   node:node.exe
 0001:00004229       __imp_load_?CreateHandle@HandleScope@v8@@CAPEAPEAVObject@internal@2@PEAVHeapObject@42@PEAV342@@Z 0000000180005229 f   node:node.exe
 0001:00004235       __imp_load_??1HandleScope@v8@@QEAA@XZ 0000000180005235 f   node:node.exe
 0001:00004241       __imp_load_??0HandleScope@v8@@QEAA@PEAVIsolate@1@@Z 0000000180005241 f   node:node.exe
 0001:0000424d       __imp_load_?SlowGetInternalField@Object@v8@@AEAA?AV?$Local@VValue@v8@@@2@H@Z 000000018000524d f   node:node.exe
 0001:00004259       __imp_load_?New@Object@v8@@SA?AV?$Local@VObject@v8@@@2@PEAVIsolate@2@@Z 0000000180005259 f   node:node.exe
 0001:00004265       __imp_load_?SetInternalField@Object@v8@@QEAAXHV?$Local@VValue@v8@@@2@@Z 0000000180005265 f   node:node.exe
 0001:00004271       __imp_load_?Get@Object@v8@@QEAA?AV?$Local@VValue@v8@@@2@I@Z 0000000180005271 f   node:node.exe
 0001:0000427d       __imp_load_?Set@Object@v8@@QEAA?AV?$Maybe@_N@2@V?$Local@VContext@v8@@@2@V?$Local@VValue@v8@@@2@1@Z 000000018000527d f   node:node.exe
 0001:00004289       __imp_load_?Set@Object@v8@@QEAA?AV?$Maybe@_N@2@V?$Local@VContext@v8@@@2@IV?$Local@VValue@v8@@@2@@Z 0000000180005289 f   node:node.exe
 0001:00004295       __imp_load_?SetInternalFieldCount@ObjectTemplate@v8@@QEAAXH@Z 0000000180005295 f   node:node.exe
 0001:000042a1       __imp_load_?NewInstance@ObjectTemplate@v8@@QEAA?AV?$MaybeLocal@VObject@v8@@@2@V?$Local@VContext@v8@@@2@@Z 00000001800052a1 f   node:node.exe
 0001:000042ad       __imp_load_?New@ObjectTemplate@v8@@SA?AV?$Local@VObjectTemplate@v8@@@2@PEAVIsolate@2@V?$Local@VFunctionTemplate@v8@@@2@@Z 00000001800052ad f   node:node.exe
 0001:000042b9       __imp_load_?NewFromUnsigned@Integer@v8@@SA?AV?$Local@VInteger@v8@@@2@PEAVIsolate@2@I@Z 00000001800052b9 f   node:node.exe
 0001:000042c5       __imp_load_?ThrowException@Isolate@v8@@QEAA?AV?$Local@VValue@v8@@@2@V32@@Z 00000001800052c5 f   node:node.exe
 0001:000042d1       __imp_load_?GetCurrentContext@Isolate@v8@@QEAA?AV?$Local@VContext@v8@@@2@XZ 00000001800052d1 f   node:node.exe
 0001:000042dd       __imp_load_?GetCurrent@Isolate@v8@@SAPEAV12@XZ 00000001800052dd f   node:node.exe
 0001:000042e9       __imp_load_?Value@External@v8@@QEBAPEAXXZ 00000001800052e9 f   node:node.exe
 0001:000042f5       __imp_load_?New@External@v8@@SA?AV?$Local@VExternal@v8@@@2@PEAVIsolate@2@PEAX@Z 00000001800052f5 f   node:node.exe
 0001:00004301       __imp_load_uv_queue_work   0000000180005301 f   node:node.exe
 0001:0000430d       __imp_load_?ToString@Value@v8@@QEBA?AV?$Local@VString@v8@@@2@XZ 000000018000530d f   node:node.exe
 0001:00004330       __security_check_cookie    0000000180005330 f   LIBCMT:amdsecgs.obj
 0001:00004350       atoi                       0000000180005350 f   LIBCMT:atox.obj
 0001:0000435c       _snprintf                  000000018000535c f   LIBCMT:snprintf.obj
 0001:00004420       memcpy                     0000000180005420 f   LIBCMT:memcpy.obj
 0001:00004420       memmove                    0000000180005420 f   LIBCMT:memcpy.obj
 0001:00004988       free                       0000000180005988 f   LIBCMT:free.obj
 0001:000049c8       malloc                     00000001800059c8 f   LIBCMT:malloc.obj
 0001:00004a80       _wassert                   0000000180005a80 f   LIBCMT:wassert.obj
 0001:000053e4       __onexitinit               00000001800063e4 f   LIBCMT:onexit.obj
 0001:00005428       _onexit                    0000000180006428 f   LIBCMT:onexit.obj
 0001:00005534       atexit                     0000000180006534 f   LIBCMT:onexit.obj
 0001:0000554c       ??_V@YAXPEAX@Z             000000018000654c f   LIBCMT:delete2.obj
 0001:00005554       _purecall                  0000000180006554 f   LIBCMT:purevirt.obj
 0001:00005580       ??3@YAXPEAX@Z              0000000180006580 f   LIBCMT:delete.obj
 0001:00005588       ??0bad_alloc@std@@QEAA@AEBV01@@Z 0000000180006588 f i LIBCMT:new.obj
 0001:000055ac       ??1bad_alloc@std@@UEAA@XZ  00000001800065ac f i LIBCMT:new.obj
 0001:000055bc       ??2@YAPEAX_K@Z             00000001800065bc f   LIBCMT:new.obj
 0001:00005628       ??_Ebad_alloc@std@@UEAAPEAXI@Z 0000000180006628 f i LIBCMT:new.obj
 0001:00005628       ??_Gbad_alloc@std@@UEAAPEAXI@Z 0000000180006628 f i LIBCMT:new.obj
 0001:00005664       ??0_LocaleUpdate@@QEAA@PEAUlocaleinfo_struct@@@Z 0000000180006664 f i LIBCMT:stricmp.obj
 0001:0000570c       __ascii_stricmp            000000018000670c f   LIBCMT:stricmp.obj
 0001:00005748       _stricmp                   0000000180006748 f   LIBCMT:stricmp.obj
 0001:00005790       _stricmp_l                 0000000180006790 f   LIBCMT:stricmp.obj
 0001:00005844       _CRT_INIT                  0000000180006844 f   LIBCMT:dllcrt0.obj
 0001:000059a4       _DllMainCRTStartup         00000001800069a4 f   LIBCMT:dllcrt0.obj
 0001:00005b04       __raise_securityfailure    0000000180006b04 f   LIBCMT:gs_report.obj
 0001:00005b50       __report_gsfailure         0000000180006b50 f   LIBCMT:gs_report.obj
 0001:00005e60       strtol                     0000000180006e60 f   LIBCMT:strtol.obj
 0001:00005e90       _call_reportfault          0000000180006e90 f   LIBCMT:invarg.obj
 0001:00005f84       _initp_misc_invarg         0000000180006f84 f   LIBCMT:invarg.obj
 0001:00005f8c       _invalid_parameter         0000000180006f8c f   LIBCMT:invarg.obj
 0001:00005ff4       _invalid_parameter_noinfo  0000000180006ff4 f   LIBCMT:invarg.obj
 0001:00006014       _invoke_watson             0000000180007014 f   LIBCMT:invarg.obj
 0001:00006050       _flsbuf                    0000000180007050 f   LIBCMT:_flsbuf.obj
 0001:000061dc       _output_l                  00000001800071dc f   LIBCMT:output.obj
 0001:00006d1c       __doserrno                 0000000180007d1c f   LIBCMT:dosmap.obj
 0001:00006d3c       _dosmaperr                 0000000180007d3c f   LIBCMT:dosmap.obj
 0001:00006d8c       _errno                     0000000180007d8c f   LIBCMT:dosmap.obj
 0001:00006dac       _get_errno_from_oserr      0000000180007dac f   LIBCMT:dosmap.obj
 0001:00006e10       memset                     0000000180007e10 f   LIBCMT:memset.obj
 0001:0000703c       __isa_available_init       000000018000803c f   LIBCMT:cpu_disp.obj
 0001:000071e0       _heap_init                 00000001800081e0 f   LIBCMT:heapinit.obj
 0001:00007200       _heap_term                 0000000180008200 f   LIBCMT:heapinit.obj
 0001:0000720c       _callnewh                  000000018000820c f   LIBCMT:handler.obj
 0001:00007240       _initp_heap_handler        0000000180008240 f   LIBCMT:handler.obj
 0001:00007248       __crtCorExitProcess        0000000180008248 f   LIBCMT:crt0dat.obj
 0001:0000728c       __crtExitProcess           000000018000828c f   LIBCMT:crt0dat.obj
 0001:000072a4       __freeCrtMemory            00000001800082a4 f   LIBCMT:crt0dat.obj
 0001:000073ec       _amsg_exit                 00000001800083ec f   LIBCMT:crt0dat.obj
 0001:00007414       _cexit                     0000000180008414 f   LIBCMT:crt0dat.obj
 0001:00007424       _cinit                     0000000180008424 f   LIBCMT:crt0dat.obj
 0001:000074bc       _exit                      00000001800084bc f   LIBCMT:crt0dat.obj
 0001:000074c8       _init_pointers             00000001800084c8 f   LIBCMT:crt0dat.obj
 0001:00007574       _initterm_e                0000000180008574 f   LIBCMT:crt0dat.obj
 0001:000075b0       _lockexit                  00000001800085b0 f   LIBCMT:crt0dat.obj
 0001:000075bc       _unlockexit                00000001800085bc f   LIBCMT:crt0dat.obj
 0001:00007760       _FF_MSGBANNER              0000000180008760 f   LIBCMT:crt0msg.obj
 0001:000077a4       _GET_RTERRMSG              00000001800087a4 f   LIBCMT:crt0msg.obj
 0001:000077d4       _NMSG_WRITE                00000001800087d4 f   LIBCMT:crt0msg.obj
 0001:00007a44       memcpy_s                   0000000180008a44 f   LIBCMT:memcpy_s.obj
 0001:00007acc       wcscat_s                   0000000180008acc f   LIBCMT:wcscat_s.obj
 0001:00007b54       wcscpy_s                   0000000180008b54 f   LIBCMT:wcscpy_s.obj
 0001:00007bc0       wcslen                     0000000180008bc0 f   LIBCMT:wcslen.obj
 0001:00007bdc       wcsncat_s                  0000000180008bdc f   LIBCMT:wcsncat_s.obj
 0001:00007cc4       _set_abort_behavior        0000000180008cc4 f   LIBCMT:abort.obj
 0001:00007ce0       abort                      0000000180008ce0 f   LIBCMT:abort.obj
 0001:00007d38       _set_error_mode            0000000180008d38 f   LIBCMT:errmode.obj
 0001:00007d78       _itow_s                    0000000180008d78 f   LIBCMT:xtows.obj
 0001:00007eb0       __initstdio                0000000180008eb0 f   LIBCMT:_file.obj
 0001:00007f48       __endstdio                 0000000180008f48 f   LIBCMT:_file.obj
 0001:00007f78       __iob_func                 0000000180008f78 f   LIBCMT:_file.obj
 0001:00007f80       _lock_file                 0000000180008f80 f   LIBCMT:_file.obj
 0001:00007fe8       _lock_file2                0000000180008fe8 f   LIBCMT:_file.obj
 0001:0000801c       _unlock_file               000000018000901c f   LIBCMT:_file.obj
 0001:0000806c       _unlock_file2              000000018000906c f   LIBCMT:_file.obj
 0001:0000808c       _fflush_nolock             000000018000908c f   LIBCMT:fflush.obj
 0001:000080d8       _flush                     00000001800090d8 f   LIBCMT:fflush.obj
 0001:00008154       _flushall                  0000000180009154 f   LIBCMT:fflush.obj
 0001:00008160       fflush                     0000000180009160 f   LIBCMT:fflush.obj
 0001:0000828c       setvbuf                    000000018000928c f   LIBCMT:setvbuf.obj
 0001:000083a4       fwprintf                   00000001800093a4 f   LIBCMT:fwprintf.obj
 0001:00008438       _vswprintf_c_l             0000000180009438 f   LIBCMT:vswprnc.obj
 0001:00008470       _vswprintf_helper          0000000180009470 f   LIBCMT:vswprnc.obj
 0001:0000858c       __get_sigabrt              000000018000958c f   LIBCMT:winsig.obj
 0001:0000859c       _initp_misc_winsig         000000018000959c f   LIBCMT:winsig.obj
 0001:000085bc       raise                      00000001800095bc f   LIBCMT:winsig.obj
 0001:000087f0       __crtMessageBoxW           00000001800097f0 f   LIBCMT:crtmboxw.obj
 0001:00008a64       __GSHandlerCheck           0000000180009a64 f   LIBCMT:gshandler.obj
 0001:00008a84       __GSHandlerCheckCommon     0000000180009a84 f   LIBCMT:gshandler.obj
 0001:00008ae8       _msize                     0000000180009ae8 f   LIBCMT:msize.obj
 0001:00008b24       _calloc_crt                0000000180009b24 f   LIBCMT:crtheap.obj
 0001:00008ba4       _malloc_crt                0000000180009ba4 f   LIBCMT:crtheap.obj
 0001:00008c20       _realloc_crt               0000000180009c20 f   LIBCMT:crtheap.obj
 0001:00008ca4       __C_specific_handler       0000000180009ca4 f   LIBCMT:chandler.obj
 0001:00008e88       _initp_misc_purevirt       0000000180009e88 f   LIBCMT:inithelp.obj
 0001:00008e90       _fpmath                    0000000180009e90 f   LIBCMT:fpinit.obj
 0001:00008e98       _cfltcvt_init              0000000180009e98 f   LIBCMT:fpinit.obj
 0001:00008f20       ??0exception@std@@QEAA@AEBQEBD@Z 0000000180009f20 f   LIBCMT:stdexcpt.obj
 0001:00008f50       ??0exception@std@@QEAA@AEBQEBDH@Z 0000000180009f50 f   LIBCMT:stdexcpt.obj
 0001:00008f6c       ??0exception@std@@QEAA@AEBV01@@Z 0000000180009f6c f   LIBCMT:stdexcpt.obj
 0001:00008f98       ??1exception@std@@UEAA@XZ  0000000180009f98 f   LIBCMT:stdexcpt.obj
 0001:00008fa8       ??4exception@std@@QEAAAEAV01@AEBV01@@Z 0000000180009fa8 f   LIBCMT:stdexcpt.obj
 0001:00008fec       ??_Gexception@std@@UEAAPEAXI@Z 0000000180009fec f i LIBCMT:stdexcpt.obj
 0001:00008fec       ??_Eexception@std@@UEAAPEAXI@Z 0000000180009fec f i LIBCMT:stdexcpt.obj
 0001:00009028       ?_Copy_str@exception@std@@AEAAXPEBD@Z 000000018000a028 f   LIBCMT:stdexcpt.obj
 0001:00009084       ?_Tidy@exception@std@@AEAAXXZ 000000018000a084 f   LIBCMT:stdexcpt.obj
 0001:000090ac       ?what@exception@std@@UEBAPEBDXZ 000000018000a0ac f   LIBCMT:stdexcpt.obj
 0001:000090c0       _CxxThrowException         000000018000a0c0 f   LIBCMT:throw.obj
 0001:00009188       ??_Gtype_info@@UEAAPEAXI@Z 000000018000a188 f i LIBCMT:typinfo.obj
 0001:00009188       ??_Etype_info@@UEAAPEAXI@Z 000000018000a188 f i LIBCMT:typinfo.obj
 0001:000091c4       __addlocaleref             000000018000a1c4 f   LIBCMT:localref.obj
 0001:00009250       __freetlocinfo             000000018000a250 f   LIBCMT:localref.obj
 0001:000093e8       __removelocaleref          000000018000a3e8 f   LIBCMT:localref.obj
 0001:0000948c       __updatetlocinfo           000000018000a48c f   LIBCMT:localref.obj
 0001:00009504       _updatetlocinfoEx_nolock   000000018000a504 f   LIBCMT:localref.obj
 0001:00009568       __initmbctable             000000018000a568 f   LIBCMT:mbctype.obj
 0001:00009884       __updatetmbcinfo           000000018000a884 f   LIBCMT:mbctype.obj
 0001:00009940       _setmbcp                   000000018000a940 f   LIBCMT:mbctype.obj
 0001:00009b84       _setmbcp_nolock            000000018000ab84 f   LIBCMT:mbctype.obj
 0001:00009e34       _tolower_l                 000000018000ae34 f   LIBCMT:tolower.obj
 0001:00009f88       tolower                    000000018000af88 f   LIBCMT:tolower.obj
 0001:00009fa8       _freefls                   000000018000afa8 f   LIBCMT:tidtable.obj
 0001:0000a0dc       _freeptd                   000000018000b0dc f   LIBCMT:tidtable.obj
 0001:0000a118       _getptd                    000000018000b118 f   LIBCMT:tidtable.obj
 0001:0000a13c       _getptd_noexit             000000018000b13c f   LIBCMT:tidtable.obj
 0001:0000a1c0       _initptd                   000000018000b1c0 f   LIBCMT:tidtable.obj
 0001:0000a284       _mtinit                    000000018000b284 f   LIBCMT:tidtable.obj
 0001:0000a304       _mtterm                    000000018000b304 f   LIBCMT:tidtable.obj
 0001:0000a328       _locterm                   000000018000b328 f   LIBCMT:wsetloca.obj
 0001:0000a370       _XcptFilter                000000018000b370 f   LIBCMT:winxfltr.obj
 0001:0000a53c       __CppXcptFilter            000000018000b53c f   LIBCMT:winxfltr.obj
 0001:0000a550       _ioinit                    000000018000b550 f   LIBCMT:ioinit.obj
 0001:0000a880       _ioterm                    000000018000b880 f   LIBCMT:ioinit.obj
 0001:0000a8f4       _setargv                   000000018000b8f4 f   LIBCMT:stdargv.obj
 0001:0000abb0       _setenvp                   000000018000bbb0 f   LIBCMT:stdenvp.obj
 0001:0000ace4       __security_init_cookie     000000018000bce4 f   LIBCMT:gs_support.obj
 0001:0000ad90       DllMain                    000000018000bd90 f   LIBCMT:dllmain.obj
 0001:0000ad98       __crtGetEnvironmentStringsA 000000018000bd98 f   LIBCMT:a_env.obj
 0001:0000ae8c       __crtCaptureCurrentContext 000000018000be8c f   LIBCMT:winapisupp.obj
 0001:0000aefc       __crtCapturePreviousContext 000000018000befc f   LIBCMT:winapisupp.obj
 0001:0000af70       __crtFlsAlloc              000000018000bf70 f   LIBCMT:winapisupp.obj
 0001:0000af8c       __crtFlsFree               000000018000bf8c f   LIBCMT:winapisupp.obj
 0001:0000afa8       __crtFlsGetValue           000000018000bfa8 f   LIBCMT:winapisupp.obj
 0001:0000afc4       __crtFlsSetValue           000000018000bfc4 f   LIBCMT:winapisupp.obj
 0001:0000afe0       __crtInitializeCriticalSectionEx 000000018000bfe0 f   LIBCMT:winapisupp.obj
 0001:0000b00c       __crtIsPackagedApp         000000018000c00c f   LIBCMT:winapisupp.obj
 0001:0000b058       __crtLoadWinApiPointers    000000018000c058 f   LIBCMT:winapisupp.obj
 0001:0000b454       __crtSleep                 000000018000c454 f   LIBCMT:winapisupp.obj
 0001:0000b45c       __crtTerminateProcess      000000018000c45c f   LIBCMT:winapisupp.obj
 0001:0000b47c       __crtUnhandledException    000000018000c47c f   LIBCMT:winapisupp.obj
 0001:0000b49c       _RTC_Initialize            000000018000c49c f   LIBCMT:initsect.obj
 0001:0000b4d4       _RTC_Terminate             000000018000c4d4 f   LIBCMT:initsect.obj
 0001:0000b50c       __crt_debugger_hook        000000018000c50c f   LIBCMT:dbghook.obj
 0001:0000b514       _isctype_l                 000000018000c514 f   LIBCMT:isctype.obj
 0001:0000b5f0       __crt_atoflt_l             000000018000c5f0 f   LIBCMT:atodbl.obj
 0001:0000b6c0       _atodbl_l                  000000018000c6c0 f   LIBCMT:atodbl.obj
 0001:0000b788       _atoflt_l                  000000018000c788 f   LIBCMT:atodbl.obj
 0001:0000b790       _fileno                    000000018000c790 f   LIBCMT:fileno.obj
 0001:0000b7b8       _isatty                    000000018000c7b8 f   LIBCMT:isatty.obj
 0001:0000b818       _write                     000000018000c818 f   LIBCMT:write.obj
 0001:0000b8fc       _write_nolock              000000018000c8fc f   LIBCMT:write.obj
 0001:0000c0f0       _lseeki64                  000000018000d0f0 f   LIBCMT:lseeki64.obj
 0001:0000c1d8       _lseeki64_nolock           000000018000d1d8 f   LIBCMT:lseeki64.obj
 0001:0000c26c       _getbuf                    000000018000d26c f   LIBCMT:_getbuf.obj
 0001:0000c2c0       _isleadbyte_l              000000018000d2c0 f i LIBCMT:_wctype.obj
 0001:0000c304       isleadbyte                 000000018000d304 f i LIBCMT:_wctype.obj
 0001:0000c360       strlen                     000000018000d360 f   LIBCMT:strlen.obj
 0001:0000c408       _get_printf_count_output   000000018000d408 f   LIBCMT:printf.obj
 0001:0000c420       _wctomb_s_l                000000018000d420 f   LIBCMT:wctomb.obj
 0001:0000c5ac       wctomb_s                   000000018000d5ac f   LIBCMT:wctomb.obj
 0001:0000c5c0       _initp_misc_cfltcvt_tab    000000018000d5c0 f   LIBCMT:cmiscdat.obj
 0001:0000c5fc       _lock                      000000018000d5fc f   LIBCMT:mlock.obj
 0001:0000c640       _mtdeletelocks             000000018000d640 f   LIBCMT:mlock.obj
 0001:0000c6c8       _mtinitlocknum             000000018000d6c8 f   LIBCMT:mlock.obj
 0001:0000c788       _mtinitlocks               000000018000d788 f   LIBCMT:mlock.obj
 0001:0000c7ec       _unlock                    000000018000d7ec f   LIBCMT:mlock.obj
 0001:0000c810       _FindPESection             000000018000d810 f   LIBCMT:pesect.obj
 0001:0000c860       _IsNonwritableInCurrentImage 000000018000d860 f   LIBCMT:pesect.obj
 0001:0000c8b0       _ValidateImageBase         000000018000d8b0 f   LIBCMT:pesect.obj
 0001:0000c8e0       ?terminate@@YAXXZ          000000018000d8e0 f   LIBCMT:hooks.obj
 0001:0000c900       _initp_eh_hooks            000000018000d900 f   LIBCMT:hooks.obj
 0001:0000c920       _initp_misc_rand_s         000000018000d920 f   LIBCMT:rand_s.obj
 0001:0000c928       _ftbuf                     000000018000d928 f   LIBCMT:_sftbuf.obj
 0001:0000c960       _stbuf                     000000018000d960 f   LIBCMT:_sftbuf.obj
 0001:0000ca30       wcsncpy_s                  000000018000da30 f   LIBCMT:wcsncpy_s.obj
 0001:0000cafc       _fcloseall                 000000018000dafc f   LIBCMT:closeall.obj
 0001:0000cba4       _commit                    000000018000dba4 f   LIBCMT:commit.obj
 0001:0000cc7c       _freebuf                   000000018000dc7c f   LIBCMT:_freebuf.obj
 0001:0000ccb4       _woutput_l                 000000018000dcb4 f   LIBCMT:woutput.obj
 0001:0000d874       realloc                    000000018000e874 f   LIBCMT:realloc.obj
 0001:0000d948       _calloc_impl               000000018000e948 f   LIBCMT:calloc_impl.obj
 0001:0000da00       _local_unwind              000000018000ea00 f   LIBCMT:jmpuwind.obj
 0001:0000da30       _NLG_Notify                000000018000ea30 f   LIBCMT:jmpuwind.obj
 0001:0000da50       __NLG_Dispatch2            000000018000ea50 f   LIBCMT:jmpuwind.obj
 0001:0000da60       __NLG_Return2              000000018000ea60 f   LIBCMT:jmpuwind.obj
 0001:0000da64       GetTableIndexFromLocaleName 000000018000ea64 f   LIBCMT:winapinls.obj
 0001:0000daf0       __crtDownlevelLocaleNameToLCID 000000018000eaf0 f   LIBCMT:winapinls.obj
 0001:0000db24       __crtLCMapStringEx         000000018000eb24 f   LIBCMT:winapinls.obj
 0001:0000dbb4       __wcsnicmp_ascii           000000018000ebb4 f   LIBCMT:winapinls.obj
 0001:0000dc20       _get_fpsr                  000000018000ec20 f   LIBCMT:fpsr.obj
 0001:0000dc30       _set_fpsr                  000000018000ec30 f   LIBCMT:fpsr.obj
 0001:0000dc3a       _fclrf                     000000018000ec3a f   LIBCMT:fpsr.obj
 0001:0000dc4e       _frnd                      000000018000ec4e f   LIBCMT:fpsr.obj
 0001:0000dc70       _cfltcvt                   000000018000ec70 f   LIBCMT:cvt.obj
 0001:0000dc94       _cfltcvt_l                 000000018000ec94 f   LIBCMT:cvt.obj
 0001:0000dd14       _cftoa_l                   000000018000ed14 f   LIBCMT:cvt.obj
 0001:0000e2c0       _cftoe_l                   000000018000f2c0 f   LIBCMT:cvt.obj
 0001:0000e51c       _cftof_l                   000000018000f51c f   LIBCMT:cvt.obj
 0001:0000e5f0       _cftog_l                   000000018000f5f0 f   LIBCMT:cvt.obj
 0001:0000e724       _cropzeros                 000000018000f724 f   LIBCMT:cvt.obj
 0001:0000e72c       _cropzeros_l               000000018000f72c f   LIBCMT:cvt.obj
 0001:0000e7c4       _fassign                   000000018000f7c4 f   LIBCMT:cvt.obj
 0001:0000e7cc       _fassign_l                 000000018000f7cc f   LIBCMT:cvt.obj
 0001:0000e80c       _forcdecpt                 000000018000f80c f   LIBCMT:cvt.obj
 0001:0000e814       _forcdecpt_l               000000018000f814 f   LIBCMT:cvt.obj
 0001:0000e894       _positive                  000000018000f894 f   LIBCMT:cvt.obj
 0001:0000e8a8       strcpy_s                   000000018000f8a8 f   LIBCMT:strcpy_s.obj
 0001:0000e920       strcmp                     000000018000f920 f   LIBCMT:strcmp.obj
 0001:0000e988       ?_Type_info_dtor@type_info@@CAXPEAV1@@Z 000000018000f988 f   LIBCMT:typname.obj
 0001:0000e9f4       __free_lconv_mon           000000018000f9f4 f   LIBCMT:initmon.obj
 0001:0000eb00       __free_lconv_num           000000018000fb00 f   LIBCMT:initnum.obj
 0001:0000eb6c       __free_lc_time             000000018000fb6c f   LIBCMT:inittime.obj
 0001:0000f254       __crtLCMapStringA          0000000180010254 f   LIBCMT:a_map.obj
 0001:0000f464       __crtGetStringTypeA        0000000180010464 f   LIBCMT:a_str.obj
 0001:0000f4f0       memcmp                     00000001800104f0 f   LIBCMT:memcmp.obj
 0001:0000f634       _ismbblead                 0000000180010634 f   LIBCMT:ismbbyte.obj
 0001:0000f650       _ld12tod                   0000000180010650 f   LIBCMT:intrncvt.obj
 0001:0000fc08       _ld12tof                   0000000180010c08 f   LIBCMT:intrncvt.obj
 0001:000101c0       __strgtold12_l             00000001800111c0 f   LIBCMT:strgtold.obj
 0001:00010a24       __lock_fhandle             0000000180011a24 f   LIBCMT:osfinfo.obj
 0001:00010abc       _free_osfhnd               0000000180011abc f   LIBCMT:osfinfo.obj
 0001:00010b68       _get_osfhandle             0000000180011b68 f   LIBCMT:osfinfo.obj
 0001:00010bdc       _unlock_fhandle            0000000180011bdc f   LIBCMT:osfinfo.obj
 0001:00010c08       _mbtowc_l                  0000000180011c08 f   LIBCMT:mbtowc.obj
 0001:00010d5c       mbtowc                     0000000180011d5c f   LIBCMT:mbtowc.obj
 0001:00010d64       _putwch_nolock             0000000180011d64 f   LIBCMT:putwch.obj
 0001:00010dd0       __chkstk                   0000000180011dd0 f   LIBCMT:chkstk.obj
 0001:00010dd0       _alloca_probe              0000000180011dd0 f   LIBCMT:chkstk.obj
 0001:00010e20       _fptrap                    0000000180011e20 f   LIBCMT:crt0fp.obj
 0001:00010e2c       _fclose_nolock             0000000180011e2c f   LIBCMT:fclose.obj
 0001:00010ea8       fclose                     0000000180011ea8 f   LIBCMT:fclose.obj
 0001:00010f10       _fputwc_nolock             0000000180011f10 f   LIBCMT:fputwc.obj
 0001:00011104       isdigit                    0000000180012104 f i LIBCMT:_ctype.obj
 0001:00011180       strrchr                    0000000180012180 f   LIBCMT:strrchr.obj
 0001:000112c4       _fptostr                   00000001800122c4 f   LIBCMT:_fptostr.obj
 0001:00011390       __dtold                    0000000180012390 f   LIBCMT:cfout.obj
 0001:00011460       _fltout2                   0000000180012460 f   LIBCMT:cfout.obj
 0001:00011518       __mtold12                  0000000180012518 f   LIBCMT:mantold.obj
 0001:0001173c       __termconout               000000018001273c f   LIBCMT:initcon.obj
 0001:0001175c       __initconout               000000018001275c f   LIBCMT:initcon.obj
 0001:00011798       _close                     0000000180012798 f   LIBCMT:close.obj
 0001:0001185c       _close_nolock              000000018001285c f   LIBCMT:close.obj
 0001:00011918       _flswbuf                   0000000180012918 f   LIBCMT:_flswbuf.obj
 0001:00011aa8       $I10_OUTPUT                0000000180012aa8 f   LIBCMT:x10fout.obj
 0001:00012580       ??0length_error@std@@QEAA@AEBV01@@Z 0000000180013580 f i libcpmt:xthrow.obj
 0001:000125a4       ??0logic_error@std@@QEAA@AEBV01@@Z 00000001800135a4 f i libcpmt:xthrow.obj
 0001:000125c8       ??0out_of_range@std@@QEAA@AEBV01@@Z 00000001800135c8 f i libcpmt:xthrow.obj
 0001:000125ec       ??1length_error@std@@UEAA@XZ 00000001800135ec f i libcpmt:xthrow.obj
 0001:000125ec       ??1out_of_range@std@@UEAA@XZ 00000001800135ec f i libcpmt:xthrow.obj
 0001:000125f4       ??_Glogic_error@std@@UEAAPEAXI@Z 00000001800135f4 f i libcpmt:xthrow.obj
 0001:000125f4       ??_Gout_of_range@std@@UEAAPEAXI@Z 00000001800135f4 f i libcpmt:xthrow.obj
 0001:000125f4       ??_Glength_error@std@@UEAAPEAXI@Z 00000001800135f4 f i libcpmt:xthrow.obj
 0001:000125f4       ??_Eout_of_range@std@@UEAAPEAXI@Z 00000001800135f4 f i libcpmt:xthrow.obj
 0001:000125f4       ??_Elogic_error@std@@UEAAPEAXI@Z 00000001800135f4 f i libcpmt:xthrow.obj
 0001:000125f4       ??_Elength_error@std@@UEAAPEAXI@Z 00000001800135f4 f i libcpmt:xthrow.obj
 0001:00012624       ?_Xbad_alloc@std@@YAXXZ    0000000180013624 f   libcpmt:xthrow.obj
 0001:00012668       ?_Xlength_error@std@@YAXPEBD@Z 0000000180013668 f   libcpmt:xthrow.obj
 0001:000126a0       ?_Xout_of_range@std@@YAXPEBD@Z 00000001800136a0 f   libcpmt:xthrow.obj
 0001:000126d6       IsProcessorFeaturePresent  00000001800136d6 f   kernel32:KERNEL32.dll
 0001:000126dc       RtlUnwindEx                00000001800136dc f   kernel32:KERNEL32.dll
 0001:000126e4       __delayLoadHelper2         00000001800136e4 f   DelayImp:delayhlp.obj
 0001:0001297c       __DestructExceptionObject  000000018001397c f   LIBCMT:frame.obj
 0001:00012a00       _CallSettingFrame          0000000180013a00 f   LIBCMT:handlers.obj
 0001:00012a40       _GetNextInstrOffset        0000000180013a40 f   LIBCMT:handlers.obj
 0002:00000000       __imp_GetModuleHandleA     0000000180014000     kernel32:KERNEL32.dll
 0002:00000008       __imp_GetLastError         0000000180014008     kernel32:KERNEL32.dll
 0002:00000010       __imp_HeapFree             0000000180014010     kernel32:KERNEL32.dll
 0002:00000018       __imp_HeapAlloc            0000000180014018     kernel32:KERNEL32.dll
 0002:00000020       __imp_GetStdHandle         0000000180014020     kernel32:KERNEL32.dll
 0002:00000028       __imp_GetFileType          0000000180014028     kernel32:KERNEL32.dll
 0002:00000030       __imp_GetModuleFileNameW   0000000180014030     kernel32:KERNEL32.dll
 0002:00000038       __imp_GetModuleHandleExW   0000000180014038     kernel32:KERNEL32.dll
 0002:00000040       __imp_WriteConsoleW        0000000180014040     kernel32:KERNEL32.dll
 0002:00000048       __imp_EncodePointer        0000000180014048     kernel32:KERNEL32.dll
 0002:00000050       __imp_DecodePointer        0000000180014050     kernel32:KERNEL32.dll
 0002:00000058       __imp_GetCommandLineA      0000000180014058     kernel32:KERNEL32.dll
 0002:00000060       __imp_GetCurrentThreadId   0000000180014060     kernel32:KERNEL32.dll
 0002:00000068       __imp_IsDebuggerPresent    0000000180014068     kernel32:KERNEL32.dll
 0002:00000070       __imp_IsProcessorFeaturePresent 0000000180014070     kernel32:KERNEL32.dll
 0002:00000078       __imp_GetProcessHeap       0000000180014078     kernel32:KERNEL32.dll
 0002:00000080       __imp_ExitProcess          0000000180014080     kernel32:KERNEL32.dll
 0002:00000088       __imp_GetProcAddress       0000000180014088     kernel32:KERNEL32.dll
 0002:00000090       __imp_MultiByteToWideChar  0000000180014090     kernel32:KERNEL32.dll
 0002:00000098       __imp_WideCharToMultiByte  0000000180014098     kernel32:KERNEL32.dll
 0002:000000a0       __imp_WriteFile            00000001800140a0     kernel32:KERNEL32.dll
 0002:000000a8       __imp_EnterCriticalSection 00000001800140a8     kernel32:KERNEL32.dll
 0002:000000b0       __imp_LeaveCriticalSection 00000001800140b0     kernel32:KERNEL32.dll
 0002:000000b8       __imp_OutputDebugStringW   00000001800140b8     kernel32:KERNEL32.dll
 0002:000000c0       __imp_LoadLibraryExW       00000001800140c0     kernel32:KERNEL32.dll
 0002:000000c8       __imp_HeapSize             00000001800140c8     kernel32:KERNEL32.dll
 0002:000000d0       __imp_RtlUnwindEx          00000001800140d0     kernel32:KERNEL32.dll
 0002:000000d8       __imp_RtlPcToFileHeader    00000001800140d8     kernel32:KERNEL32.dll
 0002:000000e0       __imp_RaiseException       00000001800140e0     kernel32:KERNEL32.dll
 0002:000000e8       __imp_IsValidCodePage      00000001800140e8     kernel32:KERNEL32.dll
 0002:000000f0       __imp_GetACP               00000001800140f0     kernel32:KERNEL32.dll
 0002:000000f8       __imp_GetOEMCP             00000001800140f8     kernel32:KERNEL32.dll
 0002:00000100       __imp_GetCPInfo            0000000180014100     kernel32:KERNEL32.dll
 0002:00000108       __imp_SetLastError         0000000180014108     kernel32:KERNEL32.dll
 0002:00000110       __imp_DeleteCriticalSection 0000000180014110     kernel32:KERNEL32.dll
 0002:00000118       __imp_GetStartupInfoW      0000000180014118     kernel32:KERNEL32.dll
 0002:00000120       __imp_GetModuleFileNameA   0000000180014120     kernel32:KERNEL32.dll
 0002:00000128       __imp_QueryPerformanceCounter 0000000180014128     kernel32:KERNEL32.dll
 0002:00000130       __imp_GetCurrentProcessId  0000000180014130     kernel32:KERNEL32.dll
 0002:00000138       __imp_GetSystemTimeAsFileTime 0000000180014138     kernel32:KERNEL32.dll
 0002:00000140       __imp_GetEnvironmentStringsW 0000000180014140     kernel32:KERNEL32.dll
 0002:00000148       __imp_FreeEnvironmentStringsW 0000000180014148     kernel32:KERNEL32.dll
 0002:00000150       __imp_RtlCaptureContext    0000000180014150     kernel32:KERNEL32.dll
 0002:00000158       __imp_RtlLookupFunctionEntry 0000000180014158     kernel32:KERNEL32.dll
 0002:00000160       __imp_RtlVirtualUnwind     0000000180014160     kernel32:KERNEL32.dll
 0002:00000168       __imp_UnhandledExceptionFilter 0000000180014168     kernel32:KERNEL32.dll
 0002:00000170       __imp_SetUnhandledExceptionFilter 0000000180014170     kernel32:KERNEL32.dll
 0002:00000178       __imp_InitializeCriticalSectionAndSpinCount 0000000180014178     kernel32:KERNEL32.dll
 0002:00000180       __imp_Sleep                0000000180014180     kernel32:KERNEL32.dll
 0002:00000188       __imp_GetCurrentProcess    0000000180014188     kernel32:KERNEL32.dll
 0002:00000190       __imp_TerminateProcess     0000000180014190     kernel32:KERNEL32.dll
 0002:00000198       __imp_TlsAlloc             0000000180014198     kernel32:KERNEL32.dll
 0002:000001a0       __imp_TlsGetValue          00000001800141a0     kernel32:KERNEL32.dll
 0002:000001a8       __imp_TlsSetValue          00000001800141a8     kernel32:KERNEL32.dll
 0002:000001b0       __imp_TlsFree              00000001800141b0     kernel32:KERNEL32.dll
 0002:000001b8       __imp_GetModuleHandleW     00000001800141b8     kernel32:KERNEL32.dll
 0002:000001c0       __imp_GetConsoleCP         00000001800141c0     kernel32:KERNEL32.dll
 0002:000001c8       __imp_GetConsoleMode       00000001800141c8     kernel32:KERNEL32.dll
 0002:000001d0       __imp_SetFilePointerEx     00000001800141d0     kernel32:KERNEL32.dll
 0002:000001d8       __imp_FreeLibrary          00000001800141d8     kernel32:KERNEL32.dll
 0002:000001e0       __imp_FlushFileBuffers     00000001800141e0     kernel32:KERNEL32.dll
 0002:000001e8       __imp_HeapReAlloc          00000001800141e8     kernel32:KERNEL32.dll
 0002:000001f0       __imp_LCMapStringW         00000001800141f0     kernel32:KERNEL32.dll
 0002:000001f8       __imp_GetStringTypeW       00000001800141f8     kernel32:KERNEL32.dll
 0002:00000200       __imp_SetStdHandle         0000000180014200     kernel32:KERNEL32.dll
 0002:00000208       __imp_CreateFileW          0000000180014208     kernel32:KERNEL32.dll
 0002:00000210       __imp_CloseHandle          0000000180014210     kernel32:KERNEL32.dll
 0002:00000218       __imp_LoadLibraryExA       0000000180014218     kernel32:KERNEL32.dll
 0002:00000220       \177KERNEL32_NULL_THUNK_DATA 0000000180014220     kernel32:KERNEL32.dll
 0002:00000228       __xc_a                     0000000180014228     LIBCMT:crt0init.obj
 0002:00000240       _register_bcrypt_lib_      0000000180014240     bcrypt_node.obj
 0002:00000248       __xc_z                     0000000180014248     LIBCMT:crt0init.obj
 0002:00000250       __xi_a                     0000000180014250     LIBCMT:crt0init.obj
 0002:00000278       __xi_z                     0000000180014278     LIBCMT:crt0init.obj
 0002:00000280       __xp_a                     0000000180014280     LIBCMT:crt0init.obj
 0002:000002a0       __xp_z                     00000001800142a0     LIBCMT:crt0init.obj
 0002:000002a8       __xt_a                     00000001800142a8     LIBCMT:crt0init.obj
 0002:000002b0       __xt_z                     00000001800142b0     LIBCMT:crt0init.obj
 0002:00000300       __sz_node_exe              0000000180014300     node:node.exe
 0002:00000310       ??_C@_17LGKOMLJ@?$AA?4?$AA?4?$AA?4?$AA?$AA@ 0000000180014310     LIBCMT:wassert.obj
 0002:00000318       ??_C@_13LBAGMAIH@?$AA?6?$AA?$AA@ 0000000180014318     LIBCMT:wassert.obj
 0002:0000031c       ??_C@_15IABLJNFO@?$AA?6?$AA?6?$AA?$AA@ 000000018001431c     LIBCMT:wassert.obj
 0002:00000328       ??_C@_1CE@OJBNHDMO@?$AAA?$AAs?$AAs?$AAe?$AAr?$AAt?$AAi?$AAo?$AAn?$AA?5?$AAf?$AAa?$AAi?$AAl?$AAe?$AAd?$AA?$CB?$AA?$AA@ 0000000180014328     LIBCMT:wassert.obj
 0002:00000350       ??_C@_1BE@PHKBBGE@?$AAP?$AAr?$AAo?$AAg?$AAr?$AAa?$AAm?$AA?3?$AA?5?$AA?$AA@ 0000000180014350     LIBCMT:wassert.obj
 0002:00000368       ??_C@_1CO@EAEJAADC@?$AA?$DM?$AAp?$AAr?$AAo?$AAg?$AAr?$AAa?$AAm?$AA?5?$AAn?$AAa?$AAm?$AAe?$AA?5?$AAu?$AAn?$AAk?$AAn?$AAo?$AAw?$AAn?$AA?$DO?$AA?$AA@ 0000000180014368     LIBCMT:wassert.obj
 0002:00000398       ??_C@_1O@HEMHKNDC@?$AAF?$AAi?$AAl?$AAe?$AA?3?$AA?5?$AA?$AA@ 0000000180014398     LIBCMT:wassert.obj
 0002:000003a8       ??_C@_1O@KCAFKHJE@?$AAL?$AAi?$AAn?$AAe?$AA?3?$AA?5?$AA?$AA@ 00000001800143a8     LIBCMT:wassert.obj
 0002:000003b8       ??_C@_1BK@PEDCIPMA@?$AAE?$AAx?$AAp?$AAr?$AAe?$AAs?$AAs?$AAi?$AAo?$AAn?$AA?3?$AA?5?$AA?$AA@ 00000001800143b8     LIBCMT:wassert.obj
 0002:000003e0       ??_C@_1OA@EGMLFBHJ@?$AAF?$AAo?$AAr?$AA?5?$AAi?$AAn?$AAf?$AAo?$AAr?$AAm?$AAa?$AAt?$AAi?$AAo?$AAn?$AA?5?$AAo?$AAn?$AA?5?$AAh?$AAo?$AAw?$AA?5?$AAy?$AAo?$AAu?$AAr?$AA?5?$AAp?$AAr?$AAo?$AAg@ 00000001800143e0     LIBCMT:wassert.obj
 0002:000004c0       ??_C@_1HK@POCJMFGK@?$AA?$CI?$AAP?$AAr?$AAe?$AAs?$AAs?$AA?5?$AAR?$AAe?$AAt?$AAr?$AAy?$AA?5?$AAt?$AAo?$AA?5?$AAd?$AAe?$AAb?$AAu?$AAg?$AA?5?$AAt?$AAh?$AAe?$AA?5?$AAa?$AAp?$AAp?$AAl?$AAi?$AAc@ 00000001800144c0     LIBCMT:wassert.obj
 0002:00000540       ??_C@_1EK@MBDPDCGA@?$AAM?$AAi?$AAc?$AAr?$AAo?$AAs?$AAo?$AAf?$AAt?$AA?5?$AAV?$AAi?$AAs?$AAu?$AAa?$AAl?$AA?5?$AAC?$AA?$CL?$AA?$CL?$AA?5?$AAR?$AAu?$AAn?$AAt?$AAi?$AAm?$AAe?$AA?5?$AAL?$AAi?$AAb@ 0000000180014540     LIBCMT:wassert.obj
 0002:0000058c       ??_C@_06MEIMCGCF@_hypot?$AA@ 000000018001458c     LIBCMT:hypot.obj
 0002:000005a0       ??_7bad_alloc@std@@6B@     00000001800145a0     LIBCMT:new.obj
 0002:000005b0       ??_C@_0P@GHFPNOJB@bad?5allocation?$AA@ 00000001800145b0     LIBCMT:new.obj
 0002:000005c0       _pDefaultRawDllMain        00000001800145c0     LIBCMT:dllcrt0.obj
 0002:000005c0       _pRawDllMain               00000001800145c0     LIBCMT:dllcrt0.obj
 0002:000005d8       ??_C@_06OJHGLDPL@?$CInull?$CJ?$AA@ 00000001800145d8     LIBCMT:output.obj
 0002:000005e0       ??_C@_1O@CEDCILHN@?$AA?$CI?$AAn?$AAu?$AAl?$AAl?$AA?$CJ?$AA?$AA@ 00000001800145e0     LIBCMT:output.obj
 0002:000005f0       __lookuptable              00000001800145f0     LIBCMT:output.obj
 0002:00000650       ??_C@_1BI@BGOHAHKC@?$AAm?$AAs?$AAc?$AAo?$AAr?$AAe?$AAe?$AA?4?$AAd?$AAl?$AAl?$AA?$AA@ 0000000180014650     LIBCMT:crt0dat.obj
 0002:00000668       ??_C@_0P@MIGLKIOC@CorExitProcess?$AA@ 0000000180014668     LIBCMT:crt0dat.obj
 0002:000007f0       ??_C@_1FK@PGACCAFB@?$AAR?$AA6?$AA0?$AA0?$AA2?$AA?$AN?$AA?6?$AA?9?$AA?5?$AAf?$AAl?$AAo?$AAa?$AAt?$AAi?$AAn?$AAg?$AA?5?$AAp?$AAo?$AAi?$AAn?$AAt?$AA?5?$AAs?$AAu?$AAp?$AAp?$AAo?$AAr?$AAt?$AA?5@ 00000001800147f0     LIBCMT:crt0msg.obj
 0002:00000850       ??_C@_1FE@LLNEDJMD@?$AAR?$AA6?$AA0?$AA0?$AA8?$AA?$AN?$AA?6?$AA?9?$AA?5?$AAn?$AAo?$AAt?$AA?5?$AAe?$AAn?$AAo?$AAu?$AAg?$AAh?$AA?5?$AAs?$AAp?$AAa?$AAc?$AAe?$AA?5?$AAf?$AAo?$AAr?$AA?5?$AAa?$AAr@ 0000000180014850     LIBCMT:crt0msg.obj
 0002:000008b0       ??_C@_1FI@HONFMGBI@?$AAR?$AA6?$AA0?$AA0?$AA9?$AA?$AN?$AA?6?$AA?9?$AA?5?$AAn?$AAo?$AAt?$AA?5?$AAe?$AAn?$AAo?$AAu?$AAg?$AAh?$AA?5?$AAs?$AAp?$AAa?$AAc?$AAe?$AA?5?$AAf?$AAo?$AAr?$AA?5?$AAe?$AAn@ 00000001800148b0     LIBCMT:crt0msg.obj
 0002:00000910       ??_C@_1EG@BEHAGFJD@?$AAR?$AA6?$AA0?$AA1?$AA0?$AA?$AN?$AA?6?$AA?9?$AA?5?$AAa?$AAb?$AAo?$AAr?$AAt?$AA?$CI?$AA?$CJ?$AA?5?$AAh?$AAa?$AAs?$AA?5?$AAb?$AAe?$AAe?$AAn?$AA?5?$AAc?$AAa?$AAl?$AAl?$AAe?$AAd@ 0000000180014910     LIBCMT:crt0msg.obj
 0002:00000960       ??_C@_1FI@LOGNIKDM@?$AAR?$AA6?$AA0?$AA1?$AA6?$AA?$AN?$AA?6?$AA?9?$AA?5?$AAn?$AAo?$AAt?$AA?5?$AAe?$AAn?$AAo?$AAu?$AAg?$AAh?$AA?5?$AAs?$AAp?$AAa?$AAc?$AAe?$AA?5?$AAf?$AAo?$AAr?$AA?5?$AAt?$AAh@ 0000000180014960     LIBCMT:crt0msg.obj
 0002:000009c0       ??_C@_1FK@BEOGODMC@?$AAR?$AA6?$AA0?$AA1?$AA7?$AA?$AN?$AA?6?$AA?9?$AA?5?$AAu?$AAn?$AAe?$AAx?$AAp?$AAe?$AAc?$AAt?$AAe?$AAd?$AA?5?$AAm?$AAu?$AAl?$AAt?$AAi?$AAt?$AAh?$AAr?$AAe?$AAa?$AAd?$AA?5@ 00000001800149c0     LIBCMT:crt0msg.obj
 0002:00000a20       ??_C@_1EC@JIBHAOPH@?$AAR?$AA6?$AA0?$AA1?$AA8?$AA?$AN?$AA?6?$AA?9?$AA?5?$AAu?$AAn?$AAe?$AAx?$AAp?$AAe?$AAc?$AAt?$AAe?$AAd?$AA?5?$AAh?$AAe?$AAa?$AAp?$AA?5?$AAe?$AAr?$AAr?$AAo?$AAr?$AA?$AN?$AA?6@ 0000000180014a20     LIBCMT:crt0msg.obj
 0002:00000a70       ??_C@_1FC@ECHBIFBC@?$AAR?$AA6?$AA0?$AA1?$AA9?$AA?$AN?$AA?6?$AA?9?$AA?5?$AAu?$AAn?$AAa?$AAb?$AAl?$AAe?$AA?5?$AAt?$AAo?$AA?5?$AAo?$AAp?$AAe?$AAn?$AA?5?$AAc?$AAo?$AAn?$AAs?$AAo?$AAl?$AAe?$AA?5@ 0000000180014a70     LIBCMT:crt0msg.obj
 0002:00000ad0       ??_C@_1GK@FHCKBEFA@?$AAR?$AA6?$AA0?$AA2?$AA4?$AA?$AN?$AA?6?$AA?9?$AA?5?$AAn?$AAo?$AAt?$AA?5?$AAe?$AAn?$AAo?$AAu?$AAg?$AAh?$AA?5?$AAs?$AAp?$AAa?$AAc?$AAe?$AA?5?$AAf?$AAo?$AAr?$AA?5?$AA_?$AAo@ 0000000180014ad0     LIBCMT:crt0msg.obj
 0002:00000b40       ??_C@_1EM@MAADIHMB@?$AAR?$AA6?$AA0?$AA2?$AA5?$AA?$AN?$AA?6?$AA?9?$AA?5?$AAp?$AAu?$AAr?$AAe?$AA?5?$AAv?$AAi?$AAr?$AAt?$AAu?$AAa?$AAl?$AA?5?$AAf?$AAu?$AAn?$AAc?$AAt?$AAi?$AAo?$AAn?$AA?5?$AAc@ 0000000180014b40     LIBCMT:crt0msg.obj
 0002:00000b90       ??_C@_1GK@MCAAGJMO@?$AAR?$AA6?$AA0?$AA2?$AA6?$AA?$AN?$AA?6?$AA?9?$AA?5?$AAn?$AAo?$AAt?$AA?5?$AAe?$AAn?$AAo?$AAu?$AAg?$AAh?$AA?5?$AAs?$AAp?$AAa?$AAc?$AAe?$AA?5?$AAf?$AAo?$AAr?$AA?5?$AAs?$AAt@ 0000000180014b90     LIBCMT:crt0msg.obj
 0002:00000c00       ??_C@_1GK@MFGOKLAG@?$AAR?$AA6?$AA0?$AA2?$AA7?$AA?$AN?$AA?6?$AA?9?$AA?5?$AAn?$AAo?$AAt?$AA?5?$AAe?$AAn?$AAo?$AAu?$AAg?$AAh?$AA?5?$AAs?$AAp?$AAa?$AAc?$AAe?$AA?5?$AAf?$AAo?$AAr?$AA?5?$AAl?$AAo@ 0000000180014c00     LIBCMT:crt0msg.obj
 0002:00000c70       ??_C@_1EK@HHFLMAOL@?$AAR?$AA6?$AA0?$AA2?$AA8?$AA?$AN?$AA?6?$AA?9?$AA?5?$AAu?$AAn?$AAa?$AAb?$AAl?$AAe?$AA?5?$AAt?$AAo?$AA?5?$AAi?$AAn?$AAi?$AAt?$AAi?$AAa?$AAl?$AAi?$AAz?$AAe?$AA?5?$AAh?$AAe@ 0000000180014c70     LIBCMT:crt0msg.obj
 0002:00000cc0       ??_C@_1DO@BMFCDCD@?$AAR?$AA6?$AA0?$AA3?$AA0?$AA?$AN?$AA?6?$AA?9?$AA?5?$AAC?$AAR?$AAT?$AA?5?$AAn?$AAo?$AAt?$AA?5?$AAi?$AAn?$AAi?$AAt?$AAi?$AAa?$AAl?$AAi?$AAz?$AAe?$AAd?$AA?$AN?$AA?6?$AA?$AA@ 0000000180014cc0     LIBCMT:crt0msg.obj
 0002:00000d00       ??_C@_1MG@ENCOOIDF@?$AAR?$AA6?$AA0?$AA3?$AA1?$AA?$AN?$AA?6?$AA?9?$AA?5?$AAA?$AAt?$AAt?$AAe?$AAm?$AAp?$AAt?$AA?5?$AAt?$AAo?$AA?5?$AAi?$AAn?$AAi?$AAt?$AAi?$AAa?$AAl?$AAi?$AAz?$AAe?$AA?5?$AAt@ 0000000180014d00     LIBCMT:crt0msg.obj
 0002:00000dd0       ??_C@_1GG@GOPILAJP@?$AAR?$AA6?$AA0?$AA3?$AA2?$AA?$AN?$AA?6?$AA?9?$AA?5?$AAn?$AAo?$AAt?$AA?5?$AAe?$AAn?$AAo?$AAu?$AAg?$AAh?$AA?5?$AAs?$AAp?$AAa?$AAc?$AAe?$AA?5?$AAf?$AAo?$AAr?$AA?5?$AAl?$AAo@ 0000000180014dd0     LIBCMT:crt0msg.obj
 0002:00000e40       ??_C@_1BOO@KGEDBGAJ@?$AAR?$AA6?$AA0?$AA3?$AA3?$AA?$AN?$AA?6?$AA?9?$AA?5?$AAA?$AAt?$AAt?$AAe?$AAm?$AAp?$AAt?$AA?5?$AAt?$AAo?$AA?5?$AAu?$AAs?$AAe?$AA?5?$AAM?$AAS?$AAI?$AAL?$AA?5?$AAc?$AAo?$AAd@ 0000000180014e40     LIBCMT:crt0msg.obj
 0002:00001030       ??_C@_1GG@MKFPEKFO@?$AAR?$AA6?$AA0?$AA3?$AA4?$AA?$AN?$AA?6?$AA?9?$AA?5?$AAi?$AAn?$AAc?$AAo?$AAn?$AAs?$AAi?$AAs?$AAt?$AAe?$AAn?$AAt?$AA?5?$AAo?$AAn?$AAe?$AAx?$AAi?$AAt?$AA?5?$AAb?$AAe?$AAg@ 0000000180015030     LIBCMT:crt0msg.obj
 0002:00001098       ??_C@_1BO@BFCDCGC@?$AAD?$AAO?$AAM?$AAA?$AAI?$AAN?$AA?5?$AAe?$AAr?$AAr?$AAo?$AAr?$AA?$AN?$AA?6?$AA?$AA@ 0000000180015098     LIBCMT:crt0msg.obj
 0002:000010b8       ??_C@_1BK@KMOMNAAI@?$AAS?$AAI?$AAN?$AAG?$AA?5?$AAe?$AAr?$AAr?$AAo?$AAr?$AA?$AN?$AA?6?$AA?$AA@ 00000001800150b8     LIBCMT:crt0msg.obj
 0002:000010d8       ??_C@_1BM@JBBEPPHI@?$AAT?$AAL?$AAO?$AAS?$AAS?$AA?5?$AAe?$AAr?$AAr?$AAo?$AAr?$AA?$AN?$AA?6?$AA?$AA@ 00000001800150d8     LIBCMT:crt0msg.obj
 0002:000010f4       ??_C@_15JNBOKNOG@?$AA?$AN?$AA?6?$AA?$AA@ 00000001800150f4     LIBCMT:crt0msg.obj
 0002:00001100       ??_C@_1BO@BKOMIGKJ@?$AAr?$AAu?$AAn?$AAt?$AAi?$AAm?$AAe?$AA?5?$AAe?$AAr?$AAr?$AAo?$AAr?$AA?5?$AA?$AA@ 0000000180015100     LIBCMT:crt0msg.obj
 0002:00001120       ??_C@_1DE@JNGNBFGO@?$AAR?$AAu?$AAn?$AAt?$AAi?$AAm?$AAe?$AA?5?$AAE?$AAr?$AAr?$AAo?$AAr?$AA?$CB?$AA?6?$AA?6?$AAP?$AAr?$AAo?$AAg?$AAr?$AAa?$AAm?$AA?3?$AA?5?$AA?$AA@ 0000000180015120     LIBCMT:crt0msg.obj
 0002:00001158       ??_C@_1BG@GOEBHBDC@?$AAU?$AAS?$AAE?$AAR?$AA3?$AA2?$AA?4?$AAD?$AAL?$AAL?$AA?$AA@ 0000000180015158     LIBCMT:crtmboxw.obj
 0002:00001170       ??_C@_0M@DLDCCGNP@MessageBoxW?$AA@ 0000000180015170     LIBCMT:crtmboxw.obj
 0002:00001180       ??_C@_0BA@HNOPNCHB@GetActiveWindow?$AA@ 0000000180015180     LIBCMT:crtmboxw.obj
 0002:00001190       ??_C@_0BD@HHGDFDBJ@GetLastActivePopup?$AA@ 0000000180015190     LIBCMT:crtmboxw.obj
 0002:000011a8       ??_C@_0BK@DEKFELLI@GetUserObjectInformationW?$AA@ 00000001800151a8     LIBCMT:crtmboxw.obj
 0002:000011c8       ??_C@_0BI@DFKBFLJE@GetProcessWindowStation?$AA@ 00000001800151c8     LIBCMT:crtmboxw.obj
 0002:000011e0       _FPinit                    00000001800151e0     LIBCMT:fpinit.obj
 0002:000011f0       ??_7exception@std@@6B@     00000001800151f0     LIBCMT:stdexcpt.obj
 0002:00001200       ??_C@_0BC@EOODALEL@Unknown?5exception?$AA@ 0000000180015200     LIBCMT:stdexcpt.obj
 0002:00001268       ??_7type_info@@6B@         0000000180015268     LIBCMT:typinfo.obj
 0002:00001290       ??_C@_1M@HPNHIDJI@?$AAj?$AAa?$AA?9?$AAJ?$AAP?$AA?$AA@ 0000000180015290     LIBCMT:mbctype.obj
 0002:000012a0       ??_C@_1M@BIBDDEMK@?$AAz?$AAh?$AA?9?$AAC?$AAN?$AA?$AA@ 00000001800152a0     LIBCMT:mbctype.obj
 0002:000012b0       ??_C@_1M@JLOOOEGK@?$AAk?$AAo?$AA?9?$AAK?$AAR?$AA?$AA@ 00000001800152b0     LIBCMT:mbctype.obj
 0002:000012c0       ??_C@_1M@CLNBBOPM@?$AAz?$AAh?$AA?9?$AAT?$AAW?$AA?$AA@ 00000001800152c0     LIBCMT:mbctype.obj
 0002:000012cc       ??_C@_03KOEHGMDN@Sun?$AA@  00000001800152cc     LIBCMT:nlsdata.obj
 0002:000012d0       ??_C@_03PDAGKDH@Mon?$AA@   00000001800152d0     LIBCMT:nlsdata.obj
 0002:000012d4       ??_C@_03NAGEINEP@Tue?$AA@  00000001800152d4     LIBCMT:nlsdata.obj
 0002:000012d8       ??_C@_03MHOMLAJA@Wed?$AA@  00000001800152d8     LIBCMT:nlsdata.obj
 0002:000012dc       ??_C@_03IOFIKPDN@Thu?$AA@  00000001800152dc     LIBCMT:nlsdata.obj
 0002:000012e0       ??_C@_03IDIOELNC@Fri?$AA@  00000001800152e0     LIBCMT:nlsdata.obj
 0002:000012e4       ??_C@_03FEFJNEK@Sat?$AA@   00000001800152e4     LIBCMT:nlsdata.obj
 0002:000012e8       ??_C@_06OOPIFAJ@Sunday?$AA@ 00000001800152e8     LIBCMT:nlsdata.obj
 0002:000012f0       ??_C@_06JLEDEDGH@Monday?$AA@ 00000001800152f0     LIBCMT:nlsdata.obj
 0002:000012f8       ??_C@_07BAAGCFCM@Tuesday?$AA@ 00000001800152f8     LIBCMT:nlsdata.obj
 0002:00001300       ??_C@_09DLIGFAKA@Wednesday?$AA@ 0000000180015300     LIBCMT:nlsdata.obj
 0002:00001310       ??_C@_08HACCIKIA@Thursday?$AA@ 0000000180015310     LIBCMT:nlsdata.obj
 0002:0000131c       ??_C@_06JECMNKMI@Friday?$AA@ 000000018001531c     LIBCMT:nlsdata.obj
 0002:00001328       ??_C@_08INBOOONO@Saturday?$AA@ 0000000180015328     LIBCMT:nlsdata.obj
 0002:00001334       ??_C@_03JIHJHPIE@Jan?$AA@  0000000180015334     LIBCMT:nlsdata.obj
 0002:00001338       ??_C@_03HJBDCHOM@Feb?$AA@  0000000180015338     LIBCMT:nlsdata.obj
 0002:0000133c       ??_C@_03ODNJBKGA@Mar?$AA@  000000018001533c     LIBCMT:nlsdata.obj
 0002:00001340       ??_C@_03LEOLGMJP@Apr?$AA@  0000000180015340     LIBCMT:nlsdata.obj
 0002:00001344       ??_C@_03CNMDKL@May?$AA@    0000000180015344     LIBCMT:nlsdata.obj
 0002:00001348       ??_C@_03IDFGHECI@Jun?$AA@  0000000180015348     LIBCMT:nlsdata.obj
 0002:0000134c       ??_C@_03LBGABGKK@Jul?$AA@  000000018001534c     LIBCMT:nlsdata.obj
 0002:00001350       ??_C@_03IFJFEIGA@Aug?$AA@  0000000180015350     LIBCMT:nlsdata.obj
 0002:00001354       ??_C@_03GGCAPAJC@Sep?$AA@  0000000180015354     LIBCMT:nlsdata.obj
 0002:00001358       ??_C@_03BMAOKBAD@Oct?$AA@  0000000180015358     LIBCMT:nlsdata.obj
 0002:0000135c       ??_C@_03JPJOFNIA@Nov?$AA@  000000018001535c     LIBCMT:nlsdata.obj
 0002:00001360       ??_C@_03MKABNOCG@Dec?$AA@  0000000180015360     LIBCMT:nlsdata.obj
 0002:00001368       ??_C@_07CGJPFGJA@January?$AA@ 0000000180015368     LIBCMT:nlsdata.obj
 0002:00001370       ??_C@_08GNJGEPFN@February?$AA@ 0000000180015370     LIBCMT:nlsdata.obj
 0002:0000137c       ??_C@_05HPCKOFNC@March?$AA@ 000000018001537c     LIBCMT:nlsdata.obj
 0002:00001384       ??_C@_05DMJDNLEJ@April?$AA@ 0000000180015384     LIBCMT:nlsdata.obj
 0002:0000138c       ??_C@_04CNLMGBGM@June?$AA@ 000000018001538c     LIBCMT:nlsdata.obj
 0002:00001394       ??_C@_04MIEPOIFP@July?$AA@ 0000000180015394     LIBCMT:nlsdata.obj
 0002:0000139c       ??_C@_06LBBHFDDG@August?$AA@ 000000018001539c     LIBCMT:nlsdata.obj
 0002:000013a8       ??_C@_09BHHEALKD@September?$AA@ 00000001800153a8     LIBCMT:nlsdata.obj
 0002:000013b8       ??_C@_07JJNFCEND@October?$AA@ 00000001800153b8     LIBCMT:nlsdata.obj
 0002:000013c0       ??_C@_08HCHEGEOA@November?$AA@ 00000001800153c0     LIBCMT:nlsdata.obj
 0002:000013d0       ??_C@_08EDHMEBNP@December?$AA@ 00000001800153d0     LIBCMT:nlsdata.obj
 0002:000013dc       ??_C@_02DEDBPAFC@AM?$AA@   00000001800153dc     LIBCMT:nlsdata.obj
 0002:000013e0       ??_C@_02CJNFDJBF@PM?$AA@   00000001800153e0     LIBCMT:nlsdata.obj
 0002:000013e8       ??_C@_08BPBNCDIB@MM?1dd?1yy?$AA@ 00000001800153e8     LIBCMT:nlsdata.obj
 0002:000013f8       ??_C@_0BE@CKGJFCPC@dddd?0?5MMMM?5dd?0?5yyyy?$AA@ 00000001800153f8     LIBCMT:nlsdata.obj
 0002:00001410       ??_C@_08JCCMCCIL@HH?3mm?3ss?$AA@ 0000000180015410     LIBCMT:nlsdata.obj
 0002:00001420       ??_C@_17MBGCMIPB@?$AAS?$AAu?$AAn?$AA?$AA@ 0000000180015420     LIBCMT:nlsdata.obj
 0002:00001428       ??_C@_17KBOMKBF@?$AAM?$AAo?$AAn?$AA?$AA@ 0000000180015428     LIBCMT:nlsdata.obj
 0002:00001430       ??_C@_17BMKGEGOJ@?$AAT?$AAu?$AAe?$AA?$AA@ 0000000180015430     LIBCMT:nlsdata.obj
 0002:00001438       ??_C@_17CJEDCEPE@?$AAW?$AAe?$AAd?$AA?$AA@ 0000000180015438     LIBCMT:nlsdata.obj
 0002:00001440       ??_C@_17PDPHAADD@?$AAT?$AAh?$AAu?$AA?$AA@ 0000000180015440     LIBCMT:nlsdata.obj
 0002:00001448       ??_C@_17HFOLPPLP@?$AAF?$AAr?$AAi?$AA?$AA@ 0000000180015448     LIBCMT:nlsdata.obj
 0002:00001450       ??_C@_17GGIBDPIH@?$AAS?$AAa?$AAt?$AA?$AA@ 0000000180015450     LIBCMT:nlsdata.obj
 0002:00001458       ??_C@_1O@IHNHDHPB@?$AAS?$AAu?$AAn?$AAd?$AAa?$AAy?$AA?$AA@ 0000000180015458     LIBCMT:nlsdata.obj
 0002:00001468       ??_C@_1O@MMNBFLIA@?$AAM?$AAo?$AAn?$AAd?$AAa?$AAy?$AA?$AA@ 0000000180015468     LIBCMT:nlsdata.obj
 0002:00001478       ??_C@_1BA@ENFBFFEK@?$AAT?$AAu?$AAe?$AAs?$AAd?$AAa?$AAy?$AA?$AA@ 0000000180015478     LIBCMT:nlsdata.obj
 0002:00001488       ??_C@_1BE@EBOGMDOH@?$AAW?$AAe?$AAd?$AAn?$AAe?$AAs?$AAd?$AAa?$AAy?$AA?$AA@ 0000000180015488     LIBCMT:nlsdata.obj
 0002:000014a0       ??_C@_1BC@HHMNLIHE@?$AAT?$AAh?$AAu?$AAr?$AAs?$AAd?$AAa?$AAy?$AA?$AA@ 00000001800154a0     LIBCMT:nlsdata.obj
 0002:000014b8       ??_C@_1O@PDICJHAG@?$AAF?$AAr?$AAi?$AAd?$AAa?$AAy?$AA?$AA@ 00000001800154b8     LIBCMT:nlsdata.obj
 0002:000014c8       ??_C@_1BC@ENMNNPAJ@?$AAS?$AAa?$AAt?$AAu?$AAr?$AAd?$AAa?$AAy?$AA?$AA@ 00000001800154c8     LIBCMT:nlsdata.obj
 0002:000014e0       ??_C@_17DKNBKCHM@?$AAJ?$AAa?$AAn?$AA?$AA@ 00000001800154e0     LIBCMT:nlsdata.obj
 0002:000014e8       ??_C@_17LMDJEKJN@?$AAF?$AAe?$AAb?$AA?$AA@ 00000001800154e8     LIBCMT:nlsdata.obj
 0002:000014f0       ??_C@_17CKNLEDEC@?$AAM?$AAa?$AAr?$AA?$AA@ 00000001800154f0     LIBCMT:nlsdata.obj
 0002:000014f8       ??_C@_17LFPOIHDD@?$AAA?$AAp?$AAr?$AA?$AA@ 00000001800154f8     LIBCMT:nlsdata.obj
 0002:00001500       ??_C@_17PNNKMEED@?$AAM?$AAa?$AAy?$AA?$AA@ 0000000180015500     LIBCMT:nlsdata.obj
 0002:00001508       ??_C@_17KCJGOCPB@?$AAJ?$AAu?$AAn?$AA?$AA@ 0000000180015508     LIBCMT:nlsdata.obj
 0002:00001510       ??_C@_17IJPCKHK@?$AAJ?$AAu?$AAl?$AA?$AA@ 0000000180015510     LIBCMT:nlsdata.obj
 0002:00001518       ??_C@_17ICPELBCN@?$AAA?$AAu?$AAg?$AA?$AA@ 0000000180015518     LIBCMT:nlsdata.obj
 0002:00001520       ??_C@_17HCHCOKMG@?$AAS?$AAe?$AAp?$AA?$AA@ 0000000180015520     LIBCMT:nlsdata.obj
 0002:00001528       ??_C@_17FNLKOI@?$AAO?$AAc?$AAt?$AA?$AA@ 0000000180015528     LIBCMT:nlsdata.obj
 0002:00001530       ??_C@_17BBDMLCIG@?$AAN?$AAo?$AAv?$AA?$AA@ 0000000180015530     LIBCMT:nlsdata.obj
 0002:00001538       ??_C@_17EGKACKIF@?$AAD?$AAe?$AAc?$AA?$AA@ 0000000180015538     LIBCMT:nlsdata.obj
 0002:00001540       ??_C@_1BA@EFMEIEBA@?$AAJ?$AAa?$AAn?$AAu?$AAa?$AAr?$AAy?$AA?$AA@ 0000000180015540     LIBCMT:nlsdata.obj
 0002:00001550       ??_C@_1BC@JGDDFFAM@?$AAF?$AAe?$AAb?$AAr?$AAu?$AAa?$AAr?$AAy?$AA?$AA@ 0000000180015550     LIBCMT:nlsdata.obj
 0002:00001568       ??_C@_1M@IKEENEDF@?$AAM?$AAa?$AAr?$AAc?$AAh?$AA?$AA@ 0000000180015568     LIBCMT:nlsdata.obj
 0002:00001578       ??_C@_1M@GJNLMHFD@?$AAA?$AAp?$AAr?$AAi?$AAl?$AA?$AA@ 0000000180015578     LIBCMT:nlsdata.obj
 0002:00001588       ??_C@_19EPFLPGAP@?$AAJ?$AAu?$AAn?$AAe?$AA?$AA@ 0000000180015588     LIBCMT:nlsdata.obj
 0002:00001598       ??_C@_19BIFMLPCD@?$AAJ?$AAu?$AAl?$AAy?$AA?$AA@ 0000000180015598     LIBCMT:nlsdata.obj
 0002:000015a8       ??_C@_1O@PAHLKOAC@?$AAA?$AAu?$AAg?$AAu?$AAs?$AAt?$AA?$AA@ 00000001800155a8     LIBCMT:nlsdata.obj
 0002:000015b8       ??_C@_1BE@DKAAMBJL@?$AAS?$AAe?$AAp?$AAt?$AAe?$AAm?$AAb?$AAe?$AAr?$AA?$AA@ 00000001800155b8     LIBCMT:nlsdata.obj
 0002:000015d0       ??_C@_1BA@EPANDLNG@?$AAO?$AAc?$AAt?$AAo?$AAb?$AAe?$AAr?$AA?$AA@ 00000001800155d0     LIBCMT:nlsdata.obj
 0002:000015e0       ??_C@_1BC@BGLIFPF@?$AAN?$AAo?$AAv?$AAe?$AAm?$AAb?$AAe?$AAr?$AA?$AA@ 00000001800155e0     LIBCMT:nlsdata.obj
 0002:000015f8       ??_C@_1BC@FEMKIFH@?$AAD?$AAe?$AAc?$AAe?$AAm?$AAb?$AAe?$AAr?$AA?$AA@ 00000001800155f8     LIBCMT:nlsdata.obj
 0002:0000160c       ??_C@_15ODEHAHHF@?$AAA?$AAM?$AA?$AA@ 000000018001560c     LIBCMT:nlsdata.obj
 0002:00001614       ??_C@_15CLMNNGEL@?$AAP?$AAM?$AA?$AA@ 0000000180015614     LIBCMT:nlsdata.obj
 0002:00001620       ??_C@_1BC@IEBCMHCM@?$AAM?$AAM?$AA?1?$AAd?$AAd?$AA?1?$AAy?$AAy?$AA?$AA@ 0000000180015620     LIBCMT:nlsdata.obj
 0002:00001638       ??_C@_1CI@KNAKOEBC@?$AAd?$AAd?$AAd?$AAd?$AA?0?$AA?5?$AAM?$AAM?$AAM?$AAM?$AA?5?$AAd?$AAd?$AA?0?$AA?5?$AAy?$AAy?$AAy?$AAy?$AA?$AA@ 0000000180015638     LIBCMT:nlsdata.obj
 0002:00001660       ??_C@_1BC@GDGBMEMK@?$AAH?$AAH?$AA?3?$AAm?$AAm?$AA?3?$AAs?$AAs?$AA?$AA@ 0000000180015660     LIBCMT:nlsdata.obj
 0002:00001678       ??_C@_1M@BMHNFIME@?$AAe?$AAn?$AA?9?$AAU?$AAS?$AA?$AA@ 0000000180015678     LIBCMT:nlsdata.obj
 0002:00001710       _XcptActTab                0000000180015710     LIBCMT:winxfltr.obj
 0002:000017d0       _XcptActTabCount           00000001800157d0     LIBCMT:winxfltr.obj
 0002:000017d4       _XcptActTabSize            00000001800157d4     LIBCMT:winxfltr.obj
 0002:000017d8       _First_FPE_Indx            00000001800157d8     LIBCMT:winxfltr.obj
 0002:000017dc       _Num_FPE                   00000001800157dc     LIBCMT:winxfltr.obj
 0002:000017e0       ??_C@_1BK@MGMFAEKH@?$AAk?$AAe?$AAr?$AAn?$AAe?$AAl?$AA3?$AA2?$AA?4?$AAd?$AAl?$AAl?$AA?$AA@ 00000001800157e0     LIBCMT:winapisupp.obj
 0002:00001800       ??_C@_08KNHFBNJ@FlsAlloc?$AA@ 0000000180015800     LIBCMT:winapisupp.obj
 0002:00001810       ??_C@_07PEJMOBNF@FlsFree?$AA@ 0000000180015810     LIBCMT:winapisupp.obj
 0002:00001818       ??_C@_0M@GDNOONDI@FlsGetValue?$AA@ 0000000180015818     LIBCMT:winapisupp.obj
 0002:00001828       ??_C@_0M@JCPCPOEF@FlsSetValue?$AA@ 0000000180015828     LIBCMT:winapisupp.obj
 0002:00001838       ??_C@_0BM@HCFOFFN@InitializeCriticalSectionEx?$AA@ 0000000180015838     LIBCMT:winapisupp.obj
 0002:00001858       ??_C@_0P@DLHPPCNH@CreateEventExW?$AA@ 0000000180015858     LIBCMT:winapisupp.obj
 0002:00001868       ??_C@_0BD@KIEEOEEH@CreateSemaphoreExW?$AA@ 0000000180015868     LIBCMT:winapisupp.obj
 0002:00001880       ??_C@_0BI@BKLFFAPO@SetThreadStackGuarantee?$AA@ 0000000180015880     LIBCMT:winapisupp.obj
 0002:00001898       ??_C@_0BG@OGFAJCKC@CreateThreadpoolTimer?$AA@ 0000000180015898     LIBCMT:winapisupp.obj
 0002:000018b0       ??_C@_0BD@LPLEMMDI@SetThreadpoolTimer?$AA@ 00000001800158b0     LIBCMT:winapisupp.obj
 0002:000018c8       ??_C@_0CA@FMNJENH@WaitForThreadpoolTimerCallbacks?$AA@ 00000001800158c8     LIBCMT:winapisupp.obj
 0002:000018e8       ??_C@_0BF@DCFCCNOC@CloseThreadpoolTimer?$AA@ 00000001800158e8     LIBCMT:winapisupp.obj
 0002:00001900       ??_C@_0BF@FLABGKKM@CreateThreadpoolWait?$AA@ 0000000180015900     LIBCMT:winapisupp.obj
 0002:00001918       ??_C@_0BC@MGCOHNA@SetThreadpoolWait?$AA@ 0000000180015918     LIBCMT:winapisupp.obj
 0002:00001930       ??_C@_0BE@OCIOMIMP@CloseThreadpoolWait?$AA@ 0000000180015930     LIBCMT:winapisupp.obj
 0002:00001948       ??_C@_0BJ@LKGHFHBO@FlushProcessWriteBuffers?$AA@ 0000000180015948     LIBCMT:winapisupp.obj
 0002:00001968       ??_C@_0BP@KALKKPMO@FreeLibraryWhenCallbackReturns?$AA@ 0000000180015968     LIBCMT:winapisupp.obj
 0002:00001988       ??_C@_0BK@DFNBACLA@GetCurrentProcessorNumber?$AA@ 0000000180015988     LIBCMT:winapisupp.obj
 0002:000019a8       ??_C@_0BP@KHGALBC@GetLogicalProcessorInformation?$AA@ 00000001800159a8     LIBCMT:winapisupp.obj
 0002:000019c8       ??_C@_0BE@FKKLLFLM@CreateSymbolicLinkW?$AA@ 00000001800159c8     LIBCMT:winapisupp.obj
 0002:000019e0       ??_C@_0BJ@OHNKDLIJ@SetDefaultDllDirectories?$AA@ 00000001800159e0     LIBCMT:winapisupp.obj
 0002:00001a00       ??_C@_0BE@LJANKFHF@EnumSystemLocalesEx?$AA@ 0000000180015a00     LIBCMT:winapisupp.obj
 0002:00001a18       ??_C@_0BA@IHGNDAEB@CompareStringEx?$AA@ 0000000180015a18     LIBCMT:winapisupp.obj
 0002:00001a28       ??_C@_0BA@EPCJIIPD@GetDateFormatEx?$AA@ 0000000180015a28     LIBCMT:winapisupp.obj
 0002:00001a38       ??_C@_0BA@ONOKGCMP@GetLocaleInfoEx?$AA@ 0000000180015a38     LIBCMT:winapisupp.obj
 0002:00001a48       ??_C@_0BA@CIJJKCJJ@GetTimeFormatEx?$AA@ 0000000180015a48     LIBCMT:winapisupp.obj
 0002:00001a58       ??_C@_0BJ@PBCCBIPI@GetUserDefaultLocaleName?$AA@ 0000000180015a58     LIBCMT:winapisupp.obj
 0002:00001a78       ??_C@_0BC@CELBKLLA@IsValidLocaleName?$AA@ 0000000180015a78     LIBCMT:winapisupp.obj
 0002:00001a90       ??_C@_0O@KKBNKAPF@LCMapStringEx?$AA@ 0000000180015a90     LIBCMT:winapisupp.obj
 0002:00001aa0       ??_C@_0BE@JOGNEJCI@GetCurrentPackageId?$AA@ 0000000180015aa0     LIBCMT:winapisupp.obj
 0002:00001ab8       ??_C@_0P@CDHHOHKP@GetTickCount64?$AA@ 0000000180015ab8     LIBCMT:winapisupp.obj
 0002:00001ac8       ??_C@_0BO@KPCLFDJJ@GetFileInformationByHandleExW?$AA@ 0000000180015ac8     LIBCMT:winapisupp.obj
 0002:00001ae8       ??_C@_0BM@MHIDLABK@SetFileInformationByHandleW?$AA@ 0000000180015ae8     LIBCMT:winapisupp.obj
 0002:00001b10       LcidToLocaleNameTable      0000000180015b10     LIBCMT:winapinls.obj
 0002:00002950       LocaleNameToIndexTable     0000000180016950     LIBCMT:winapinls.obj
 0002:00003790       ??_C@_15EMKDOKLE@?$AAa?$AAr?$AA?$AA@ 0000000180017790     LIBCMT:winapinls.obj
 0002:00003798       ??_C@_15KNPADPLH@?$AAb?$AAg?$AA?$AA@ 0000000180017798     LIBCMT:winapinls.obj
 0002:000037a0       ??_C@_15EDMHLDMO@?$AAc?$AAa?$AA?$AA@ 00000001800177a0     LIBCMT:winapinls.obj
 0002:000037a8       ??_C@_1O@BPEAJADD@?$AAz?$AAh?$AA?9?$AAC?$AAH?$AAS?$AA?$AA@ 00000001800177a8     LIBCMT:winapinls.obj
 0002:000037b8       ??_C@_15LJNHCMNK@?$AAc?$AAs?$AA?$AA@ 00000001800177b8     LIBCMT:winapinls.obj
 0002:000037c0       ??_C@_15FOMCIDHG@?$AAd?$AAa?$AA?$AA@ 00000001800177c0     LIBCMT:winapinls.obj
 0002:000037c8       ??_C@_15NBKABECB@?$AAd?$AAe?$AA?$AA@ 00000001800177c8     LIBCMT:winapinls.obj
 0002:000037d0       ??_C@_15GHPEIIAO@?$AAe?$AAl?$AA?$AA@ 00000001800177d0     LIBCMT:winapinls.obj
 0002:000037d8       ??_C@_15MNPNEAIF@?$AAe?$AAn?$AA?$AA@ 00000001800177d8     LIBCMT:winapinls.obj
 0002:000037e0       ??_C@_15GPIOMPMH@?$AAe?$AAs?$AA?$AA@ 00000001800177e0     LIBCMT:winapinls.obj
 0002:000037e8       ??_C@_15NGLOAKJC@?$AAf?$AAi?$AA?$AA@ 00000001800177e8     LIBCMT:winapinls.obj
 0002:000037f0       ??_C@_15FBKGNKAM@?$AAf?$AAr?$AA?$AA@ 00000001800177f0     LIBCMT:winapinls.obj
 0002:000037f8       ??_C@_15KGGCNEFK@?$AAh?$AAe?$AA?$AA@ 00000001800177f8     LIBCMT:winapinls.obj
 0002:00003800       ??_C@_15PGHLIDMF@?$AAh?$AAu?$AA?$AA@ 0000000180017800     LIBCMT:winapinls.obj
 0002:00003808       ??_C@_15BIEMAPLM@?$AAi?$AAs?$AA?$AA@ 0000000180017808     LIBCMT:winapinls.obj
 0002:00003810       ??_C@_15IFJLDHAF@?$AAi?$AAt?$AA?$AA@ 0000000180017810     LIBCMT:winapinls.obj
 0002:00003818       ??_C@_15GEMIOCAG@?$AAj?$AAa?$AA?$AA@ 0000000180017818     LIBCMT:winapinls.obj
 0002:00003820       ??_C@_15EPELEGJA@?$AAk?$AAo?$AA?$AA@ 0000000180017820     LIBCMT:winapinls.obj
 0002:00003828       ??_C@_15NDDHIMN@?$AAn?$AAl?$AA?$AA@ 0000000180017828     LIBCMT:winapinls.obj
 0002:00003830       ??_C@_15BPIGNHCD@?$AAn?$AAo?$AA?$AA@ 0000000180017830     LIBCMT:winapinls.obj
 0002:00003838       ??_C@_15DEOPBLCG@?$AAp?$AAl?$AA?$AA@ 0000000180017838     LIBCMT:winapinls.obj
 0002:00003840       ??_C@_15KBECGEFG@?$AAp?$AAt?$AA?$AA@ 0000000180017840     LIBCMT:winapinls.obj
 0002:00003848       ??_C@_15GLJCBFMD@?$AAr?$AAo?$AA?$AA@ 0000000180017848     LIBCMT:winapinls.obj
 0002:00003850       ??_C@_15FEDGKCDI@?$AAr?$AAu?$AA?$AA@ 0000000180017850     LIBCMT:winapinls.obj
 0002:00003858       ??_C@_15GLKMLLHM@?$AAh?$AAr?$AA?$AA@ 0000000180017858     LIBCMT:winapinls.obj
 0002:00003860       ??_C@_15CPKMFBDB@?$AAs?$AAk?$AA?$AA@ 0000000180017860     LIBCMT:winapinls.obj
 0002:00003868       ??_C@_15BAAIOGMK@?$AAs?$AAq?$AA?$AA@ 0000000180017868     LIBCMT:winapinls.obj
 0002:00003870       ??_C@_15INNPNOHD@?$AAs?$AAv?$AA?$AA@ 0000000180017870     LIBCMT:winapinls.obj
 0002:00003878       ??_C@_15CABMMOGH@?$AAt?$AAh?$AA?$AA@ 0000000180017878     LIBCMT:winapinls.obj
 0002:00003880       ??_C@_15BPLIHJJM@?$AAt?$AAr?$AA?$AA@ 0000000180017880     LIBCMT:winapinls.obj
 0002:00003888       ??_C@_15NEOEKKDJ@?$AAu?$AAr?$AA?$AA@ 0000000180017888     LIBCMT:winapinls.obj
 0002:00003890       ??_C@_15NFICGAJK@?$AAi?$AAd?$AA?$AA@ 0000000180017890     LIBCMT:winapinls.obj
 0002:00003898       ??_C@_15PJPFLCCM@?$AAu?$AAk?$AA?$AA@ 0000000180017898     LIBCMT:winapinls.obj
 0002:000038a0       ??_C@_15HPJPHDM@?$AAb?$AAe?$AA?$AA@ 00000001800178a0     LIBCMT:winapinls.obj
 0002:000038a8       ??_C@_15LCHLGJII@?$AAs?$AAl?$AA?$AA@ 00000001800178a8     LIBCMT:winapinls.obj
 0002:000038b0       ??_C@_15PCFJPHHO@?$AAe?$AAt?$AA?$AA@ 00000001800178b0     LIBCMT:winapinls.obj
 0002:000038b8       ??_C@_15HPFPGODN@?$AAl?$AAv?$AA?$AA@ 00000001800178b8     LIBCMT:winapinls.obj
 0002:000038c0       ??_C@_15NFFGKGLG@?$AAl?$AAt?$AA?$AA@ 00000001800178c0     LIBCMT:winapinls.obj
 0002:000038c8       ??_C@_15BDAKCCHN@?$AAf?$AAa?$AA?$AA@ 00000001800178c8     LIBCMT:winapinls.obj
 0002:000038d0       ??_C@_15NFGIAIAJ@?$AAv?$AAi?$AA?$AA@ 00000001800178d0     LIBCMT:winapinls.obj
 0002:000038d8       ??_C@_15LMKNDMHN@?$AAh?$AAy?$AA?$AA@ 00000001800178d8     LIBCMT:winapinls.obj
 0002:000038e0       ??_C@_15IJBHMCFL@?$AAa?$AAz?$AA?$AA@ 00000001800178e0     LIBCMT:winapinls.obj
 0002:000038e8       ??_C@_15EKOFJABL@?$AAe?$AAu?$AA?$AA@ 00000001800178e8     LIBCMT:winapinls.obj
 0002:000038f0       ??_C@_15BGHADCNK@?$AAm?$AAk?$AA?$AA@ 00000001800178f0     LIBCMT:winapinls.obj
 0002:000038f8       ??_C@_15JDNICKHM@?$AAa?$AAf?$AA?$AA@ 00000001800178f8     LIBCMT:winapinls.obj
 0002:00003900       ??_C@_15KPJEDBKD@?$AAk?$AAa?$AA?$AA@ 0000000180017900     LIBCMT:winapinls.obj
 0002:00003908       ??_C@_15PDNFFFEO@?$AAf?$AAo?$AA?$AA@ 0000000180017908     LIBCMT:winapinls.obj
 0002:00003910       ??_C@_15OMLEGLOC@?$AAh?$AAi?$AA?$AA@ 0000000180017910     LIBCMT:winapinls.obj
 0002:00003918       ??_C@_15IDNNENKK@?$AAm?$AAs?$AA?$AA@ 0000000180017918     LIBCMT:winapinls.obj
 0002:00003920       ??_C@_15MACJNBMH@?$AAk?$AAk?$AA?$AA@ 0000000180017920     LIBCMT:winapinls.obj
 0002:00003928       ??_C@_15DKDJEOND@?$AAk?$AAy?$AA?$AA@ 0000000180017928     LIBCMT:winapinls.obj
 0002:00003930       ??_C@_15DFGDLJBG@?$AAs?$AAw?$AA?$AA@ 0000000180017930     LIBCMT:winapinls.obj
 0002:00003938       ??_C@_15BBFAICNG@?$AAu?$AAz?$AA?$AA@ 0000000180017938     LIBCMT:winapinls.obj
 0002:00003940       ??_C@_15DKNDCGEA@?$AAt?$AAt?$AA?$AA@ 0000000180017940     LIBCMT:winapinls.obj
 0002:00003948       ??_C@_15MGIFMDPL@?$AAp?$AAa?$AA?$AA@ 0000000180017948     LIBCMT:winapinls.obj
 0002:00003950       ??_C@_15HCNDBBA@?$AAg?$AAu?$AA?$AA@ 0000000180017950     LIBCMT:winapinls.obj
 0002:00003958       ??_C@_15FNBEIBON@?$AAt?$AAa?$AA?$AA@ 0000000180017958     LIBCMT:winapinls.obj
 0002:00003960       ??_C@_15NCHGBGLK@?$AAt?$AAe?$AA?$AA@ 0000000180017960     LIBCMT:winapinls.obj
 0002:00003968       ??_C@_15PHPHCBPF@?$AAk?$AAn?$AA?$AA@ 0000000180017968     LIBCMT:winapinls.obj
 0002:00003970       ??_C@_15DLGBCKMP@?$AAm?$AAr?$AA?$AA@ 0000000180017970     LIBCMT:winapinls.obj
 0002:00003978       ??_C@_15EABBLBFF@?$AAs?$AAa?$AA?$AA@ 0000000180017978     LIBCMT:winapinls.obj
 0002:00003980       ??_C@_15CBKOMCOI@?$AAm?$AAn?$AA?$AA@ 0000000180017980     LIBCMT:winapinls.obj
 0002:00003988       ??_C@_15CKDMCJAF@?$AAg?$AAl?$AA?$AA@ 0000000180017988     LIBCMT:winapinls.obj
 0002:00003990       ??_C@_17CNJFBPG@?$AAk?$AAo?$AAk?$AA?$AA@ 0000000180017990     LIBCMT:winapinls.obj
 0002:00003998       ??_C@_17FFBJICPL@?$AAs?$AAy?$AAr?$AA?$AA@ 0000000180017998     LIBCMT:winapinls.obj
 0002:000039a0       ??_C@_17KPNDCPAF@?$AAd?$AAi?$AAv?$AA?$AA@ 00000001800179a0     LIBCMT:winapinls.obj
 0002:000039a8       ??_C@_11LOCGONAA@?$AA?$AA@ 00000001800179a8     LIBCMT:winapinls.obj
 0002:000039b0       ??_C@_1M@OKAHONE@?$AAa?$AAr?$AA?9?$AAS?$AAA?$AA?$AA@ 00000001800179b0     LIBCMT:winapinls.obj
 0002:000039c0       ??_C@_1M@FFFIGIGK@?$AAb?$AAg?$AA?9?$AAB?$AAG?$AA?$AA@ 00000001800179c0     LIBCMT:winapinls.obj
 0002:000039d0       ??_C@_1M@BJNKEDC@?$AAc?$AAa?$AA?9?$AAE?$AAS?$AA?$AA@ 00000001800179d0     LIBCMT:winapinls.obj
 0002:000039e0       ??_C@_1M@IJJHFJHA@?$AAc?$AAs?$AA?9?$AAC?$AAZ?$AA?$AA@ 00000001800179e0     LIBCMT:winapinls.obj
 0002:000039f0       ??_C@_1M@CLPEOBGI@?$AAd?$AAa?$AA?9?$AAD?$AAK?$AA?$AA@ 00000001800179f0     LIBCMT:winapinls.obj
 0002:00003a00       ??_C@_1M@MCMADGCB@?$AAd?$AAe?$AA?9?$AAD?$AAE?$AA?$AA@ 0000000180017a00     LIBCMT:winapinls.obj
 0002:00003a10       ??_C@_1M@OOCKEMAM@?$AAe?$AAl?$AA?9?$AAG?$AAR?$AA?$AA@ 0000000180017a10     LIBCMT:winapinls.obj
 0002:00003a20       ??_C@_1M@DDNJFGID@?$AAf?$AAi?$AA?9?$AAF?$AAI?$AA?$AA@ 0000000180017a20     LIBCMT:winapinls.obj
 0002:00003a30       ??_C@_1M@GLIPPMAC@?$AAf?$AAr?$AA?9?$AAF?$AAR?$AA?$AA@ 0000000180017a30     LIBCMT:winapinls.obj
 0002:00003a40       ??_C@_1M@GFMCHPE@?$AAh?$AAe?$AA?9?$AAI?$AAL?$AA?$AA@ 0000000180017a40     LIBCMT:winapinls.obj
 0002:00003a50       ??_C@_1M@MHLPGNKM@?$AAh?$AAu?$AA?9?$AAH?$AAU?$AA?$AA@ 0000000180017a50     LIBCMT:winapinls.obj
 0002:00003a60       ??_C@_1M@LPDDNNPN@?$AAi?$AAs?$AA?9?$AAI?$AAS?$AA?$AA@ 0000000180017a60     LIBCMT:winapinls.obj
 0002:00003a70       ??_C@_1M@MADIPODN@?$AAi?$AAt?$AA?9?$AAI?$AAT?$AA?$AA@ 0000000180017a70     LIBCMT:winapinls.obj
 0002:00003a80       ??_C@_1M@IHBJJGG@?$AAn?$AAl?$AA?9?$AAN?$AAL?$AA?$AA@ 0000000180017a80     LIBCMT:winapinls.obj
 0002:00003a90       ??_C@_1M@EANAGDL@?$AAn?$AAb?$AA?9?$AAN?$AAO?$AA?$AA@ 0000000180017a90     LIBCMT:winapinls.obj
 0002:00003aa0       ??_C@_1M@NEIEMEGP@?$AAp?$AAl?$AA?9?$AAP?$AAL?$AA?$AA@ 0000000180017aa0     LIBCMT:winapinls.obj
 0002:00003ab0       ??_C@_1M@BOCFIGEP@?$AAp?$AAt?$AA?9?$AAB?$AAR?$AA?$AA@ 0000000180017ab0     LIBCMT:winapinls.obj
 0002:00003ac0       ??_C@_1M@IMPFOPBG@?$AAr?$AAo?$AA?9?$AAR?$AAO?$AA?$AA@ 0000000180017ac0     LIBCMT:winapinls.obj
 0002:00003ad0       ??_C@_1M@IDNNEJMM@?$AAr?$AAu?$AA?9?$AAR?$AAU?$AA?$AA@ 0000000180017ad0     LIBCMT:winapinls.obj
 0002:00003ae0       ??_C@_1M@LILEEOGM@?$AAh?$AAr?$AA?9?$AAH?$AAR?$AA?$AA@ 0000000180017ae0     LIBCMT:winapinls.obj
 0002:00003af0       ??_C@_1M@FKIFEHPB@?$AAs?$AAk?$AA?9?$AAS?$AAK?$AA?$AA@ 0000000180017af0     LIBCMT:winapinls.obj
 0002:00003b00       ??_C@_1M@LJMAMNPJ@?$AAs?$AAq?$AA?9?$AAA?$AAL?$AA?$AA@ 0000000180017b00     LIBCMT:winapinls.obj
 0002:00003b10       ??_C@_1M@GIAKDKJK@?$AAs?$AAv?$AA?9?$AAS?$AAE?$AA?$AA@ 0000000180017b10     LIBCMT:winapinls.obj
 0002:00003b20       ??_C@_1M@MKJKIKCL@?$AAt?$AAh?$AA?9?$AAT?$AAH?$AA?$AA@ 0000000180017b20     LIBCMT:winapinls.obj
 0002:00003b30       ??_C@_1M@MFLCCMPB@?$AAt?$AAr?$AA?9?$AAT?$AAR?$AA?$AA@ 0000000180017b30     LIBCMT:winapinls.obj
 0002:00003b40       ??_C@_1M@OIJHDKJN@?$AAu?$AAr?$AA?9?$AAP?$AAK?$AA?$AA@ 0000000180017b40     LIBCMT:winapinls.obj
 0002:00003b50       ??_C@_1M@LHIPCIEK@?$AAi?$AAd?$AA?9?$AAI?$AAD?$AA?$AA@ 0000000180017b50     LIBCMT:winapinls.obj
 0002:00003b60       ??_C@_1M@MFMOBGI@?$AAu?$AAk?$AA?9?$AAU?$AAA?$AA?$AA@ 0000000180017b60     LIBCMT:winapinls.obj
 0002:00003b70       ??_C@_1M@OBGLJIPL@?$AAb?$AAe?$AA?9?$AAB?$AAY?$AA?$AA@ 0000000180017b70     LIBCMT:winapinls.obj
 0002:00003b80       ??_C@_1M@BCFAJEAD@?$AAs?$AAl?$AA?9?$AAS?$AAI?$AA?$AA@ 0000000180017b80     LIBCMT:winapinls.obj
 0002:00003b90       ??_C@_1M@FKFFEDDN@?$AAe?$AAt?$AA?9?$AAE?$AAE?$AA?$AA@ 0000000180017b90     LIBCMT:winapinls.obj
 0002:00003ba0       ??_C@_1M@KGKKAACI@?$AAl?$AAv?$AA?9?$AAL?$AAV?$AA?$AA@ 0000000180017ba0     LIBCMT:winapinls.obj
 0002:00003bb0       ??_C@_1M@IFGBIJO@?$AAl?$AAt?$AA?9?$AAL?$AAT?$AA?$AA@ 0000000180017bb0     LIBCMT:winapinls.obj
 0002:00003bc0       ??_C@_1M@FGEAHEDM@?$AAf?$AAa?$AA?9?$AAI?$AAR?$AA?$AA@ 0000000180017bc0     LIBCMT:winapinls.obj
 0002:00003bd0       ??_C@_1M@KBMAIBFN@?$AAv?$AAi?$AA?9?$AAV?$AAN?$AA?$AA@ 0000000180017bd0     LIBCMT:winapinls.obj
 0002:00003be0       ??_C@_1M@GPCBKDJK@?$AAh?$AAy?$AA?9?$AAA?$AAM?$AA?$AA@ 0000000180017be0     LIBCMT:winapinls.obj
 0002:00003bf0       ??_C@_1BG@BECMDDJB@?$AAa?$AAz?$AA?9?$AAA?$AAZ?$AA?9?$AAL?$AAa?$AAt?$AAn?$AA?$AA@ 0000000180017bf0     LIBCMT:winapinls.obj
 0002:00003c08       ??_C@_1M@MAOFCAEA@?$AAe?$AAu?$AA?9?$AAE?$AAS?$AA?$AA@ 0000000180017c08     LIBCMT:winapinls.obj
 0002:00003c18       ??_C@_1M@IGHABKPI@?$AAm?$AAk?$AA?9?$AAM?$AAK?$AA?$AA@ 0000000180017c18     LIBCMT:winapinls.obj
 0002:00003c28       ??_C@_1M@IAIGNEJG@?$AAt?$AAn?$AA?9?$AAZ?$AAA?$AA?$AA@ 0000000180017c28     LIBCMT:winapinls.obj
 0002:00003c38       ??_C@_1M@IIJCOJFA@?$AAx?$AAh?$AA?9?$AAZ?$AAA?$AA?$AA@ 0000000180017c38     LIBCMT:winapinls.obj
 0002:00003c48       ??_C@_1M@LGPJHNJH@?$AAz?$AAu?$AA?9?$AAZ?$AAA?$AA?$AA@ 0000000180017c48     LIBCMT:winapinls.obj
 0002:00003c58       ??_C@_1M@HOKAOIO@?$AAa?$AAf?$AA?9?$AAZ?$AAA?$AA?$AA@ 0000000180017c58     LIBCMT:winapinls.obj
 0002:00003c68       ??_C@_1M@DPCLHLIE@?$AAk?$AAa?$AA?9?$AAG?$AAE?$AA?$AA@ 0000000180017c68     LIBCMT:winapinls.obj
 0002:00003c78       ??_C@_1M@BLKMHJBI@?$AAf?$AAo?$AA?9?$AAF?$AAO?$AA?$AA@ 0000000180017c78     LIBCMT:winapinls.obj
 0002:00003c88       ??_C@_1M@LGGJAPPB@?$AAh?$AAi?$AA?9?$AAI?$AAN?$AA?$AA@ 0000000180017c88     LIBCMT:winapinls.obj
 0002:00003c98       ??_C@_1M@FIKPIHFE@?$AAm?$AAt?$AA?9?$AAM?$AAT?$AA?$AA@ 0000000180017c98     LIBCMT:winapinls.obj
 0002:00003ca8       ??_C@_1M@HEGGPBFA@?$AAs?$AAe?$AA?9?$AAN?$AAO?$AA?$AA@ 0000000180017ca8     LIBCMT:winapinls.obj
 0002:00003cb8       ??_C@_1M@EIBJEEPA@?$AAm?$AAs?$AA?9?$AAM?$AAY?$AA?$AA@ 0000000180017cb8     LIBCMT:winapinls.obj
 0002:00003cc8       ??_C@_1M@FHLBGMPP@?$AAk?$AAk?$AA?9?$AAK?$AAZ?$AA?$AA@ 0000000180017cc8     LIBCMT:winapinls.obj
 0002:00003cd8       ??_C@_1M@NGJJLCGI@?$AAk?$AAy?$AA?9?$AAK?$AAG?$AA?$AA@ 0000000180017cd8     LIBCMT:winapinls.obj
 0002:00003ce8       ??_C@_1M@GIENNBFC@?$AAs?$AAw?$AA?9?$AAK?$AAE?$AA?$AA@ 0000000180017ce8     LIBCMT:winapinls.obj
 0002:00003cf8       ??_C@_1BG@NDGMJIMJ@?$AAu?$AAz?$AA?9?$AAU?$AAZ?$AA?9?$AAL?$AAa?$AAt?$AAn?$AA?$AA@ 0000000180017cf8     LIBCMT:winapinls.obj
 0002:00003d10       ??_C@_1M@IDCCIHBC@?$AAt?$AAt?$AA?9?$AAR?$AAU?$AA?$AA@ 0000000180017d10     LIBCMT:winapinls.obj
 0002:00003d20       ??_C@_1M@LOICPMOJ@?$AAb?$AAn?$AA?9?$AAI?$AAN?$AA?$AA@ 0000000180017d20     LIBCMT:winapinls.obj
 0002:00003d30       ??_C@_1M@KPKKNEAH@?$AAp?$AAa?$AA?9?$AAI?$AAN?$AA?$AA@ 0000000180017d30     LIBCMT:winapinls.obj
 0002:00003d40       ??_C@_1M@PJGPPBOG@?$AAg?$AAu?$AA?9?$AAI?$AAN?$AA?$AA@ 0000000180017d40     LIBCMT:winapinls.obj
 0002:00003d50       ??_C@_1M@KMKMOPHI@?$AAt?$AAa?$AA?9?$AAI?$AAN?$AA?$AA@ 0000000180017d50     LIBCMT:winapinls.obj
 0002:00003d60       ??_C@_1M@KFEHEPAC@?$AAt?$AAe?$AA?9?$AAI?$AAN?$AA?$AA@ 0000000180017d60     LIBCMT:winapinls.obj
 0002:00003d70       ??_C@_1M@CDCLMGHI@?$AAk?$AAn?$AA?9?$AAI?$AAN?$AA?$AA@ 0000000180017d70     LIBCMT:winapinls.obj
 0002:00003d80       ??_C@_1M@MIODLDKF@?$AAm?$AAl?$AA?9?$AAI?$AAN?$AA?$AA@ 0000000180017d80     LIBCMT:winapinls.obj
 0002:00003d90       ??_C@_1M@PBIEACPO@?$AAm?$AAr?$AA?9?$AAI?$AAN?$AA?$AA@ 0000000180017d90     LIBCMT:winapinls.obj
 0002:00003da0       ??_C@_1M@NIDEAGPH@?$AAs?$AAa?$AA?9?$AAI?$AAN?$AA?$AA@ 0000000180017da0     LIBCMT:winapinls.obj
 0002:00003db0       ??_C@_1M@FHIHCBIO@?$AAm?$AAn?$AA?9?$AAM?$AAN?$AA?$AA@ 0000000180017db0     LIBCMT:winapinls.obj
 0002:00003dc0       ??_C@_1M@JAIJPENP@?$AAc?$AAy?$AA?9?$AAG?$AAB?$AA?$AA@ 0000000180017dc0     LIBCMT:winapinls.obj
 0002:00003dd0       ??_C@_1M@PHGFBEPN@?$AAg?$AAl?$AA?9?$AAE?$AAS?$AA?$AA@ 0000000180017dd0     LIBCMT:winapinls.obj
 0002:00003de0       ??_C@_1O@KPIPDNCP@?$AAk?$AAo?$AAk?$AA?9?$AAI?$AAN?$AA?$AA@ 0000000180017de0     LIBCMT:winapinls.obj
 0002:00003df0       ??_C@_1O@KNHJLDJA@?$AAs?$AAy?$AAr?$AA?9?$AAS?$AAY?$AA?$AA@ 0000000180017df0     LIBCMT:winapinls.obj
 0002:00003e00       ??_C@_1O@MKEKBLAH@?$AAd?$AAi?$AAv?$AA?9?$AAM?$AAV?$AA?$AA@ 0000000180017e00     LIBCMT:winapinls.obj
 0002:00003e10       ??_C@_1O@OHDCKDDF@?$AAq?$AAu?$AAz?$AA?9?$AAB?$AAO?$AA?$AA@ 0000000180017e10     LIBCMT:winapinls.obj
 0002:00003e20       ??_C@_1M@LEPJNLFD@?$AAn?$AAs?$AA?9?$AAZ?$AAA?$AA?$AA@ 0000000180017e20     LIBCMT:winapinls.obj
 0002:00003e30       ??_C@_1M@OMLEIIJB@?$AAm?$AAi?$AA?9?$AAN?$AAZ?$AA?$AA@ 0000000180017e30     LIBCMT:winapinls.obj
 0002:00003e40       ??_C@_1M@PMPEAILG@?$AAa?$AAr?$AA?9?$AAI?$AAQ?$AA?$AA@ 0000000180017e40     LIBCMT:winapinls.obj
 0002:00003e50       ??_C@_1M@CNKPNOEE@?$AAd?$AAe?$AA?9?$AAC?$AAH?$AA?$AA@ 0000000180017e50     LIBCMT:winapinls.obj
 0002:00003e60       ??_C@_1M@LKMGMLKO@?$AAe?$AAn?$AA?9?$AAG?$AAB?$AA?$AA@ 0000000180017e60     LIBCMT:winapinls.obj
 0002:00003e70       ??_C@_1M@PGKJFFGL@?$AAe?$AAs?$AA?9?$AAM?$AAX?$AA?$AA@ 0000000180017e70     LIBCMT:winapinls.obj
 0002:00003e80       ??_C@_1M@DNNANBDC@?$AAf?$AAr?$AA?9?$AAB?$AAE?$AA?$AA@ 0000000180017e80     LIBCMT:winapinls.obj
 0002:00003e90       ??_C@_1M@HLGMDFHM@?$AAi?$AAt?$AA?9?$AAC?$AAH?$AA?$AA@ 0000000180017e90     LIBCMT:winapinls.obj
 0002:00003ea0       ??_C@_1M@CLLBGJH@?$AAn?$AAl?$AA?9?$AAB?$AAE?$AA?$AA@ 0000000180017ea0     LIBCMT:winapinls.obj
 0002:00003eb0       ??_C@_1M@BODBOGLF@?$AAn?$AAn?$AA?9?$AAN?$AAO?$AA?$AA@ 0000000180017eb0     LIBCMT:winapinls.obj
 0002:00003ec0       ??_C@_1M@HFFAHKAD@?$AAp?$AAt?$AA?9?$AAP?$AAT?$AA?$AA@ 0000000180017ec0     LIBCMT:winapinls.obj
 0002:00003ed0       ??_C@_1BG@LNOAKHIE@?$AAs?$AAr?$AA?9?$AAS?$AAP?$AA?9?$AAL?$AAa?$AAt?$AAn?$AA?$AA@ 0000000180017ed0     LIBCMT:winapinls.obj
 0002:00003ee8       ??_C@_1M@HBMHBGAK@?$AAs?$AAv?$AA?9?$AAF?$AAI?$AA?$AA@ 0000000180017ee8     LIBCMT:winapinls.obj
 0002:00003ef8       ??_C@_1BG@DGCJGJBE@?$AAa?$AAz?$AA?9?$AAA?$AAZ?$AA?9?$AAC?$AAy?$AAr?$AAl?$AA?$AA@ 0000000180017ef8     LIBCMT:winapinls.obj
 0002:00003f10       ??_C@_1M@KEJDAAHB@?$AAs?$AAe?$AA?9?$AAS?$AAE?$AA?$AA@ 0000000180017f10     LIBCMT:winapinls.obj
 0002:00003f20       ??_C@_1M@HEIBJJAD@?$AAm?$AAs?$AA?9?$AAB?$AAN?$AA?$AA@ 0000000180017f20     LIBCMT:winapinls.obj
 0002:00003f30       ??_C@_1BG@PBGJMCEM@?$AAu?$AAz?$AA?9?$AAU?$AAZ?$AA?9?$AAC?$AAy?$AAr?$AAl?$AA?$AA@ 0000000180017f30     LIBCMT:winapinls.obj
 0002:00003f48       ??_C@_1O@LAOBCMDF@?$AAq?$AAu?$AAz?$AA?9?$AAE?$AAC?$AA?$AA@ 0000000180017f48     LIBCMT:winapinls.obj
 0002:00003f58       ??_C@_1M@POEEMAIO@?$AAa?$AAr?$AA?9?$AAE?$AAG?$AA?$AA@ 0000000180017f58     LIBCMT:winapinls.obj
 0002:00003f68       ??_C@_1M@EFAKDEDL@?$AAz?$AAh?$AA?9?$AAH?$AAK?$AA?$AA@ 0000000180017f68     LIBCMT:winapinls.obj
 0002:00003f78       ??_C@_1M@HKKIJHGI@?$AAd?$AAe?$AA?9?$AAA?$AAT?$AA?$AA@ 0000000180017f78     LIBCMT:winapinls.obj
 0002:00003f88       ??_C@_1M@KBFBEHJF@?$AAe?$AAn?$AA?9?$AAA?$AAU?$AA?$AA@ 0000000180017f88     LIBCMT:winapinls.obj
 0002:00003f98       ??_C@_1M@MNPLFAAH@?$AAe?$AAs?$AA?9?$AAE?$AAS?$AA?$AA@ 0000000180017f98     LIBCMT:winapinls.obj
 0002:00003fa8       ??_C@_1M@HJOOJFMA@?$AAf?$AAr?$AA?9?$AAC?$AAA?$AA?$AA@ 0000000180017fa8     LIBCMT:winapinls.obj
 0002:00003fb8       ??_C@_1BG@JPOFPNAB@?$AAs?$AAr?$AA?9?$AAS?$AAP?$AA?9?$AAC?$AAy?$AAr?$AAl?$AA?$AA@ 0000000180017fb8     LIBCMT:winapinls.obj
 0002:00003fd0       ??_C@_1M@LNFOCMOB@?$AAs?$AAe?$AA?9?$AAF?$AAI?$AA?$AA@ 0000000180017fd0     LIBCMT:winapinls.obj
 0002:00003fe0       ??_C@_1O@MGJBOAMB@?$AAq?$AAu?$AAz?$AA?9?$AAP?$AAE?$AA?$AA@ 0000000180017fe0     LIBCMT:winapinls.obj
 0002:00003ff0       ??_C@_1M@GJINLBOK@?$AAa?$AAr?$AA?9?$AAL?$AAY?$AA?$AA@ 0000000180017ff0     LIBCMT:winapinls.obj
 0002:00004000       ??_C@_1M@GGMNHJNL@?$AAz?$AAh?$AA?9?$AAS?$AAG?$AA?$AA@ 0000000180018000     LIBCMT:winapinls.obj
 0002:00004010       ??_C@_1M@HOIKODND@?$AAd?$AAe?$AA?9?$AAL?$AAU?$AA?$AA@ 0000000180018010     LIBCMT:winapinls.obj
 0002:00004020       ??_C@_1M@DDOCCGFG@?$AAe?$AAn?$AA?9?$AAC?$AAA?$AA?$AA@ 0000000180018020     LIBCMT:winapinls.obj
 0002:00004030       ??_C@_1M@BNOEMJLF@?$AAe?$AAs?$AA?9?$AAG?$AAT?$AA?$AA@ 0000000180018030     LIBCMT:winapinls.obj
 0002:00004040       ??_C@_1M@EOGNKEK@?$AAf?$AAr?$AA?9?$AAC?$AAH?$AA?$AA@ 0000000180018040     LIBCMT:winapinls.obj
 0002:00004050       ??_C@_1M@FLIDJFHL@?$AAh?$AAr?$AA?9?$AAB?$AAA?$AA?$AA@ 0000000180018050     LIBCMT:winapinls.obj
 0002:00004060       ??_C@_1O@FMCELNAJ@?$AAs?$AAm?$AAj?$AA?9?$AAN?$AAO?$AA?$AA@ 0000000180018060     LIBCMT:winapinls.obj
 0002:00004070       ??_C@_1M@JHGLJMGJ@?$AAa?$AAr?$AA?9?$AAD?$AAZ?$AA?$AA@ 0000000180018070     LIBCMT:winapinls.obj
 0002:00004080       ??_C@_1M@JKKFDCNP@?$AAz?$AAh?$AA?9?$AAM?$AAO?$AA?$AA@ 0000000180018080     LIBCMT:winapinls.obj
 0002:00004090       ??_C@_1M@GEEFALPE@?$AAd?$AAe?$AA?9?$AAL?$AAI?$AA?$AA@ 0000000180018090     LIBCMT:winapinls.obj
 0002:000040a0       ??_C@_1M@IGEOFBG@?$AAe?$AAn?$AA?9?$AAN?$AAZ?$AA?$AA@ 00000001800180a0     LIBCMT:winapinls.obj
 0002:000040b0       ??_C@_1M@KDBONEHP@?$AAe?$AAs?$AA?9?$AAC?$AAR?$AA?$AA@ 00000001800180b0     LIBCMT:winapinls.obj
 0002:000040c0       ??_C@_1M@FHMDOHNN@?$AAf?$AAr?$AA?9?$AAL?$AAU?$AA?$AA@ 00000001800180c0     LIBCMT:winapinls.obj
 0002:000040d0       ??_C@_1BG@NFKKMAFG@?$AAb?$AAs?$AA?9?$AAB?$AAA?$AA?9?$AAL?$AAa?$AAt?$AAn?$AA?$AA@ 00000001800180d0     LIBCMT:winapinls.obj
 0002:000040e8       ??_C@_1O@IMNBEMCI@?$AAs?$AAm?$AAj?$AA?9?$AAS?$AAE?$AA?$AA@ 00000001800180e8     LIBCMT:winapinls.obj
 0002:000040f8       ??_C@_1M@DHHMBNDP@?$AAa?$AAr?$AA?9?$AAM?$AAA?$AA?$AA@ 00000001800180f8     LIBCMT:winapinls.obj
 0002:00004108       ??_C@_1M@BNBLJCGH@?$AAe?$AAn?$AA?9?$AAI?$AAE?$AA?$AA@ 0000000180018108     LIBCMT:winapinls.obj
 0002:00004118       ??_C@_1M@GEPAFMDL@?$AAe?$AAs?$AA?9?$AAP?$AAA?$AA?$AA@ 0000000180018118     LIBCMT:winapinls.obj
 0002:00004128       ??_C@_1M@OJONDMDL@?$AAf?$AAr?$AA?9?$AAM?$AAC?$AA?$AA@ 0000000180018128     LIBCMT:winapinls.obj
 0002:00004138       ??_C@_1BG@OBCNFJB@?$AAs?$AAr?$AA?9?$AAB?$AAA?$AA?9?$AAL?$AAa?$AAt?$AAn?$AA?$AA@ 0000000180018138     LIBCMT:winapinls.obj
 0002:00004150       ??_C@_1O@KEMEEGPO@?$AAs?$AAm?$AAa?$AA?9?$AAN?$AAO?$AA?$AA@ 0000000180018150     LIBCMT:winapinls.obj
 0002:00004160       ??_C@_1M@ELMGFODK@?$AAa?$AAr?$AA?9?$AAT?$AAN?$AA?$AA@ 0000000180018160     LIBCMT:winapinls.obj
 0002:00004170       ??_C@_1M@BHDLHFAF@?$AAe?$AAn?$AA?9?$AAZ?$AAA?$AA?$AA@ 0000000180018170     LIBCMT:winapinls.obj
 0002:00004180       ??_C@_1M@BMGIGLIF@?$AAe?$AAs?$AA?9?$AAD?$AAO?$AA?$AA@ 0000000180018180     LIBCMT:winapinls.obj
 0002:00004190       ??_C@_1BG@CMBHIPBE@?$AAs?$AAr?$AA?9?$AAB?$AAA?$AA?9?$AAC?$AAy?$AAr?$AAl?$AA?$AA@ 0000000180018190     LIBCMT:winapinls.obj
 0002:000041a8       ??_C@_1O@HEDBLHNP@?$AAs?$AAm?$AAa?$AA?9?$AAS?$AAE?$AA?$AA@ 00000001800181a8     LIBCMT:winapinls.obj
 0002:000041b8       ??_C@_1M@DAGCADIM@?$AAa?$AAr?$AA?9?$AAO?$AAM?$AA?$AA@ 00000001800181b8     LIBCMT:winapinls.obj
 0002:000041c8       ??_C@_1M@FODLMICG@?$AAe?$AAn?$AA?9?$AAJ?$AAM?$AA?$AA@ 00000001800181c8     LIBCMT:winapinls.obj
 0002:000041d8       ??_C@_1M@DNMLCIHB@?$AAe?$AAs?$AA?9?$AAV?$AAE?$AA?$AA@ 00000001800181d8     LIBCMT:winapinls.obj
 0002:000041e8       ??_C@_1O@EOKHMKJK@?$AAs?$AAm?$AAs?$AA?9?$AAF?$AAI?$AA?$AA@ 00000001800181e8     LIBCMT:winapinls.obj
 0002:000041f8       ??_C@_1M@CAFJMKOF@?$AAa?$AAr?$AA?9?$AAY?$AAE?$AA?$AA@ 00000001800181f8     LIBCMT:winapinls.obj
 0002:00004208       ??_C@_1M@CBFHIJLI@?$AAe?$AAn?$AA?9?$AAC?$AAB?$AA?$AA@ 0000000180018208     LIBCMT:winapinls.obj
 0002:00004218       ??_C@_1M@BGNFLDN@?$AAe?$AAs?$AA?9?$AAC?$AAO?$AA?$AA@ 0000000180018218     LIBCMT:winapinls.obj
 0002:00004228       ??_C@_1O@JMPHMAMC@?$AAs?$AAm?$AAn?$AA?9?$AAF?$AAI?$AA?$AA@ 0000000180018228     LIBCMT:winapinls.obj
 0002:00004238       ??_C@_1M@JLANABKE@?$AAa?$AAr?$AA?9?$AAS?$AAY?$AA?$AA@ 0000000180018238     LIBCMT:winapinls.obj
 0002:00004248       ??_C@_1M@HPKGCFGN@?$AAe?$AAn?$AA?9?$AAB?$AAZ?$AA?$AA@ 0000000180018248     LIBCMT:winapinls.obj
 0002:00004258       ??_C@_1M@OLJCMLGM@?$AAe?$AAs?$AA?9?$AAP?$AAE?$AA?$AA@ 0000000180018258     LIBCMT:winapinls.obj
 0002:00004268       ??_C@_1M@MKKGFKLE@?$AAa?$AAr?$AA?9?$AAJ?$AAO?$AA?$AA@ 0000000180018268     LIBCMT:winapinls.obj
 0002:00004278       ??_C@_1M@EKPGLDNI@?$AAe?$AAn?$AA?9?$AAT?$AAT?$AA?$AA@ 0000000180018278     LIBCMT:winapinls.obj
 0002:00004288       ??_C@_1M@OONGHFHE@?$AAe?$AAs?$AA?9?$AAA?$AAR?$AA?$AA@ 0000000180018288     LIBCMT:winapinls.obj
 0002:00004298       ??_C@_1M@OOJFGBHE@?$AAa?$AAr?$AA?9?$AAL?$AAB?$AA?$AA@ 0000000180018298     LIBCMT:winapinls.obj
 0002:000042a8       ??_C@_1M@GCEJHNEG@?$AAe?$AAn?$AA?9?$AAZ?$AAW?$AA?$AA@ 00000001800182a8     LIBCMT:winapinls.obj
 0002:000042b8       ??_C@_1M@JNOCAHJI@?$AAe?$AAs?$AA?9?$AAE?$AAC?$AA?$AA@ 00000001800182b8     LIBCMT:winapinls.obj
 0002:000042c8       ??_C@_1M@JEFHPGGB@?$AAa?$AAr?$AA?9?$AAK?$AAW?$AA?$AA@ 00000001800182c8     LIBCMT:winapinls.obj
 0002:000042d8       ??_C@_1M@MLKIBJOJ@?$AAe?$AAn?$AA?9?$AAP?$AAH?$AA?$AA@ 00000001800182d8     LIBCMT:winapinls.obj
 0002:000042e8       ??_C@_1M@BDNIPEND@?$AAe?$AAs?$AA?9?$AAC?$AAL?$AA?$AA@ 00000001800182e8     LIBCMT:winapinls.obj
 0002:000042f8       ??_C@_1M@MPNMEKBD@?$AAa?$AAr?$AA?9?$AAA?$AAE?$AA?$AA@ 00000001800182f8     LIBCMT:winapinls.obj
 0002:00004308       ??_C@_1M@KBJALCPI@?$AAe?$AAs?$AA?9?$AAU?$AAY?$AA?$AA@ 0000000180018308     LIBCMT:winapinls.obj
 0002:00004318       ??_C@_1M@LLCCOAGA@?$AAa?$AAr?$AA?9?$AAB?$AAH?$AA?$AA@ 0000000180018318     LIBCMT:winapinls.obj
 0002:00004328       ??_C@_1M@PBFNCDEL@?$AAe?$AAs?$AA?9?$AAP?$AAY?$AA?$AA@ 0000000180018328     LIBCMT:winapinls.obj
 0002:00004338       ??_C@_1M@EDGINPNP@?$AAa?$AAr?$AA?9?$AAQ?$AAA?$AA?$AA@ 0000000180018338     LIBCMT:winapinls.obj
 0002:00004348       ??_C@_1M@MKDBIIJI@?$AAe?$AAs?$AA?9?$AAB?$AAO?$AA?$AA@ 0000000180018348     LIBCMT:winapinls.obj
 0002:00004358       ??_C@_1M@CPKKEBLD@?$AAe?$AAs?$AA?9?$AAS?$AAV?$AA?$AA@ 0000000180018358     LIBCMT:winapinls.obj
 0002:00004368       ??_C@_1M@NDBGMMJL@?$AAe?$AAs?$AA?9?$AAH?$AAN?$AA?$AA@ 0000000180018368     LIBCMT:winapinls.obj
 0002:00004378       ??_C@_1M@JIJIBHDP@?$AAe?$AAs?$AA?9?$AAN?$AAI?$AA?$AA@ 0000000180018378     LIBCMT:winapinls.obj
 0002:00004388       ??_C@_1M@CGFMKEEK@?$AAe?$AAs?$AA?9?$AAP?$AAR?$AA?$AA@ 0000000180018388     LIBCMT:winapinls.obj
 0002:00004398       ??_C@_1O@ICJHKIIK@?$AAz?$AAh?$AA?9?$AAC?$AAH?$AAT?$AA?$AA@ 0000000180018398     LIBCMT:winapinls.obj
 0002:000043a8       ??_C@_15CLNEJCE@?$AAs?$AAr?$AA?$AA@ 00000001800183a8     LIBCMT:winapinls.obj
 0002:000043b0       ??_C@_1M@KAHEKEIG@?$AAa?$AAf?$AA?9?$AAz?$AAa?$AA?$AA@ 00000001800183b0     LIBCMT:winapinls.obj
 0002:000043c0       ??_C@_1M@GIECOABL@?$AAa?$AAr?$AA?9?$AAa?$AAe?$AA?$AA@ 00000001800183c0     LIBCMT:winapinls.obj
 0002:000043d0       ??_C@_1M@BMLMEKGI@?$AAa?$AAr?$AA?9?$AAb?$AAh?$AA?$AA@ 00000001800183d0     LIBCMT:winapinls.obj
 0002:000043e0       ??_C@_1M@DAPFDGGB@?$AAa?$AAr?$AA?9?$AAd?$AAz?$AA?$AA@ 00000001800183e0     LIBCMT:winapinls.obj
 0002:000043f0       ??_C@_1M@FJNKGKIG@?$AAa?$AAr?$AA?9?$AAe?$AAg?$AA?$AA@ 00000001800183f0     LIBCMT:winapinls.obj
 0002:00004400       ??_C@_1M@FLGKKCLO@?$AAa?$AAr?$AA?9?$AAi?$AAq?$AA?$AA@ 0000000180018400     LIBCMT:winapinls.obj
 0002:00004410       ??_C@_1M@GNDIPALM@?$AAa?$AAr?$AA?9?$AAj?$AAo?$AA?$AA@ 0000000180018410     LIBCMT:winapinls.obj
 0002:00004420       ??_C@_1M@DDMJFMGJ@?$AAa?$AAr?$AA?9?$AAk?$AAw?$AA?$AA@ 0000000180018420     LIBCMT:winapinls.obj
 0002:00004430       ??_C@_1M@EJALMLHM@?$AAa?$AAr?$AA?9?$AAl?$AAb?$AA?$AA@ 0000000180018430     LIBCMT:winapinls.obj
 0002:00004440       ??_C@_1M@MOBDBLOC@?$AAa?$AAr?$AA?9?$AAl?$AAy?$AA?$AA@ 0000000180018440     LIBCMT:winapinls.obj
 0002:00004450       ??_C@_1M@JAOCLHDH@?$AAa?$AAr?$AA?9?$AAm?$AAa?$AA?$AA@ 0000000180018450     LIBCMT:winapinls.obj
 0002:00004460       ??_C@_1M@JHPMKJIE@?$AAa?$AAr?$AA?9?$AAo?$AAm?$AA?$AA@ 0000000180018460     LIBCMT:winapinls.obj
 0002:00004470       ??_C@_1M@OEPGHFNH@?$AAa?$AAr?$AA?9?$AAq?$AAa?$AA?$AA@ 0000000180018470     LIBCMT:winapinls.obj
 0002:00004480       ??_C@_1M@KJDONENM@?$AAa?$AAr?$AA?9?$AAs?$AAa?$AA?$AA@ 0000000180018480     LIBCMT:winapinls.obj
 0002:00004490       ??_C@_1M@DMJDKLKM@?$AAa?$AAr?$AA?9?$AAs?$AAy?$AA?$AA@ 0000000180018490     LIBCMT:winapinls.obj
 0002:000044a0       ??_C@_1M@OMFIPEDC@?$AAa?$AAr?$AA?9?$AAt?$AAn?$AA?$AA@ 00000001800184a0     LIBCMT:winapinls.obj
 0002:000044b0       ??_C@_1M@IHMHGAON@?$AAa?$AAr?$AA?9?$AAy?$AAe?$AA?$AA@ 00000001800184b0     LIBCMT:winapinls.obj
 0002:000044c0       ??_C@_1BG@KDCPGJGB@?$AAa?$AAz?$AA?9?$AAa?$AAz?$AA?9?$AAc?$AAy?$AAr?$AAl?$AA?$AA@ 00000001800184c0     LIBCMT:winapinls.obj
 0002:000044d8       ??_C@_1BG@IBCKDDOE@?$AAa?$AAz?$AA?9?$AAa?$AAz?$AA?9?$AAl?$AAa?$AAt?$AAn?$AA?$AA@ 00000001800184d8     LIBCMT:winapinls.obj
 0002:000044f0       ??_C@_1M@EGPFDCPD@?$AAb?$AAe?$AA?9?$AAb?$AAy?$AA?$AA@ 00000001800184f0     LIBCMT:winapinls.obj
 0002:00004500       ??_C@_1M@PCMGMCGC@?$AAb?$AAg?$AA?9?$AAb?$AAg?$AA?$AA@ 0000000180018500     LIBCMT:winapinls.obj
 0002:00004510       ??_C@_1M@BJBMFGOB@?$AAb?$AAn?$AA?9?$AAi?$AAn?$AA?$AA@ 0000000180018510     LIBCMT:winapinls.obj
 0002:00004520       ??_C@_1BG@EAKMMACD@?$AAb?$AAs?$AA?9?$AAb?$AAa?$AA?9?$AAl?$AAa?$AAt?$AAn?$AA?$AA@ 0000000180018520     LIBCMT:winapinls.obj
 0002:00004538       ??_C@_1M@KGADAODK@?$AAc?$AAa?$AA?9?$AAe?$AAs?$AA?$AA@ 0000000180018538     LIBCMT:winapinls.obj
 0002:00004548       ??_C@_1M@COAJPDHI@?$AAc?$AAs?$AA?9?$AAc?$AAz?$AA?$AA@ 0000000180018548     LIBCMT:winapinls.obj
 0002:00004558       ??_C@_1M@DHBHFONH@?$AAc?$AAy?$AA?9?$AAg?$AAb?$AA?$AA@ 0000000180018558     LIBCMT:winapinls.obj
 0002:00004568       ??_C@_1M@IMGKELGA@?$AAd?$AAa?$AA?9?$AAd?$AAk?$AA?$AA@ 0000000180018568     LIBCMT:winapinls.obj
 0002:00004578       ??_C@_1M@NNDGDNGA@?$AAd?$AAe?$AA?9?$AAa?$AAt?$AA?$AA@ 0000000180018578     LIBCMT:winapinls.obj
 0002:00004588       ??_C@_1M@IKDBHEEM@?$AAd?$AAe?$AA?9?$AAc?$AAh?$AA?$AA@ 0000000180018588     LIBCMT:winapinls.obj
 0002:00004598       ??_C@_1M@GFFOJMCJ@?$AAd?$AAe?$AA?9?$AAd?$AAe?$AA?$AA@ 0000000180018598     LIBCMT:winapinls.obj
 0002:000045a8       ??_C@_1M@MDNLKBPM@?$AAd?$AAe?$AA?9?$AAl?$AAi?$AA?$AA@ 00000001800185a8     LIBCMT:winapinls.obj
 0002:000045b8       ??_C@_1M@NJBEEJNL@?$AAd?$AAe?$AA?9?$AAl?$AAu?$AA?$AA@ 00000001800185b8     LIBCMT:winapinls.obj
 0002:000045c8       ??_C@_1O@GNNELBAP@?$AAd?$AAi?$AAv?$AA?9?$AAm?$AAv?$AA?$AA@ 00000001800185c8     LIBCMT:winapinls.obj
 0002:000045d8       ??_C@_1M@EJLEOGAE@?$AAe?$AAl?$AA?9?$AAg?$AAr?$AA?$AA@ 00000001800185d8     LIBCMT:winapinls.obj
 0002:000045e8       ??_C@_1M@GMPONJN@?$AAe?$AAn?$AA?9?$AAa?$AAu?$AA?$AA@ 00000001800185e8     LIBCMT:winapinls.obj
 0002:000045f8       ??_C@_1M@NIDIIPGF@?$AAe?$AAn?$AA?9?$AAb?$AAz?$AA?$AA@ 00000001800185f8     LIBCMT:winapinls.obj
 0002:00004608       ??_C@_1M@JEHMIMFO@?$AAe?$AAn?$AA?9?$AAc?$AAa?$AA?$AA@ 0000000180018608     LIBCMT:winapinls.obj
 0002:00004618       ??_C@_1M@IGMJCDLA@?$AAe?$AAn?$AA?9?$AAc?$AAb?$AA?$AA@ 0000000180018618     LIBCMT:winapinls.obj
 0002:00004628       ??_C@_1M@BNFIGBKG@?$AAe?$AAn?$AA?9?$AAg?$AAb?$AA?$AA@ 0000000180018628     LIBCMT:winapinls.obj
 0002:00004638       ??_C@_1M@LKIFDIGP@?$AAe?$AAn?$AA?9?$AAi?$AAe?$AA?$AA@ 0000000180018638     LIBCMT:winapinls.obj
 0002:00004648       ??_C@_1M@PJKFGCCO@?$AAe?$AAn?$AA?9?$AAj?$AAm?$AA?$AA@ 0000000180018648     LIBCMT:winapinls.obj
 0002:00004658       ??_C@_1M@KPPKEPBO@?$AAe?$AAn?$AA?9?$AAn?$AAz?$AA?$AA@ 0000000180018658     LIBCMT:winapinls.obj
 0002:00004668       ??_C@_1M@GMDGLDOB@?$AAe?$AAn?$AA?9?$AAp?$AAh?$AA?$AA@ 0000000180018668     LIBCMT:winapinls.obj
 0002:00004678       ??_C@_1M@ONGIBJNA@?$AAe?$AAn?$AA?9?$AAt?$AAt?$AA?$AA@ 0000000180018678     LIBCMT:winapinls.obj
 0002:00004688       ??_C@_1M@LLODPCMM@?$AAe?$AAn?$AA?9?$AAu?$AAs?$AA?$AA@ 0000000180018688     LIBCMT:winapinls.obj
 0002:00004698       ??_C@_1M@LAKFNPAN@?$AAe?$AAn?$AA?9?$AAz?$AAa?$AA?$AA@ 0000000180018698     LIBCMT:winapinls.obj
 0002:000046a8       ??_C@_1M@MFNHNHEO@?$AAe?$AAn?$AA?9?$AAz?$AAw?$AA?$AA@ 00000001800186a8     LIBCMT:winapinls.obj
 0002:000046b8       ??_C@_1M@EJEINPHM@?$AAe?$AAs?$AA?9?$AAa?$AAr?$AA?$AA@ 00000001800186b8     LIBCMT:winapinls.obj
 0002:000046c8       ??_C@_1M@GNKPCCJA@?$AAe?$AAs?$AA?9?$AAb?$AAo?$AA?$AA@ 00000001800186c8     LIBCMT:winapinls.obj
 0002:000046d8       ??_C@_1M@LEEGFONL@?$AAe?$AAs?$AA?9?$AAc?$AAl?$AA?$AA@ 00000001800186d8     LIBCMT:winapinls.obj
 0002:000046e8       ??_C@_1M@KGPDPBDF@?$AAe?$AAs?$AA?9?$AAc?$AAo?$AA?$AA@ 00000001800186e8     LIBCMT:winapinls.obj
 0002:000046f8       ??_C@_1M@EIAHOHH@?$AAe?$AAs?$AA?9?$AAc?$AAr?$AA?$AA@ 00000001800186f8     LIBCMT:winapinls.obj
 0002:00004708       ??_C@_1M@LLPGMBIN@?$AAe?$AAs?$AA?9?$AAd?$AAo?$AA?$AA@ 0000000180018708     LIBCMT:winapinls.obj
 0002:00004718       ??_C@_1M@DKHMKNJA@?$AAe?$AAs?$AA?9?$AAe?$AAc?$AA?$AA@ 0000000180018718     LIBCMT:winapinls.obj
 0002:00004728       ??_C@_1M@GKGFPKAP@?$AAe?$AAs?$AA?9?$AAe?$AAs?$AA?$AA@ 0000000180018728     LIBCMT:winapinls.obj
 0002:00004738       ??_C@_1M@LKHKGDLN@?$AAe?$AAs?$AA?9?$AAg?$AAt?$AA?$AA@ 0000000180018738     LIBCMT:winapinls.obj
 0002:00004748       ??_C@_1M@HEIIGGJD@?$AAe?$AAs?$AA?9?$AAh?$AAn?$AA?$AA@ 0000000180018748     LIBCMT:winapinls.obj
 0002:00004758       ??_C@_1M@FBDHPPGD@?$AAe?$AAs?$AA?9?$AAm?$AAx?$AA?$AA@ 0000000180018758     LIBCMT:winapinls.obj
 0002:00004768       ??_C@_1M@DPAGLNDH@?$AAe?$AAs?$AA?9?$AAn?$AAi?$AA?$AA@ 0000000180018768     LIBCMT:winapinls.obj
 0002:00004778       ??_C@_1M@MDGOPGDD@?$AAe?$AAs?$AA?9?$AAp?$AAa?$AA?$AA@ 0000000180018778     LIBCMT:winapinls.obj
 0002:00004788       ??_C@_1M@EMAMGBGE@?$AAe?$AAs?$AA?9?$AAp?$AAe?$AA?$AA@ 0000000180018788     LIBCMT:winapinls.obj
 0002:00004798       ??_C@_1M@IBMCAOEC@?$AAe?$AAs?$AA?9?$AAp?$AAr?$AA?$AA@ 0000000180018798     LIBCMT:winapinls.obj
 0002:000047a8       ??_C@_1M@FGMDIJED@?$AAe?$AAs?$AA?9?$AAp?$AAy?$AA?$AA@ 00000001800187a8     LIBCMT:winapinls.obj
 0002:000047b8       ??_C@_1M@IIDEOLLL@?$AAe?$AAs?$AA?9?$AAs?$AAv?$AA?$AA@ 00000001800187b8     LIBCMT:winapinls.obj
 0002:000047c8       ??_C@_1M@GAOBIPA@?$AAe?$AAs?$AA?9?$AAu?$AAy?$AA?$AA@ 00000001800187c8     LIBCMT:winapinls.obj
 0002:000047d8       ??_C@_1M@JKFFICHJ@?$AAe?$AAs?$AA?9?$AAv?$AAe?$AA?$AA@ 00000001800187d8     LIBCMT:winapinls.obj
 0002:000047e8       ??_C@_1M@PNMLOJDF@?$AAe?$AAt?$AA?9?$AAe?$AAe?$AA?$AA@ 00000001800187e8     LIBCMT:winapinls.obj
 0002:000047f8       ??_C@_1M@GHHLIKEI@?$AAe?$AAu?$AA?9?$AAe?$AAs?$AA?$AA@ 00000001800187f8     LIBCMT:winapinls.obj
 0002:00004808       ??_C@_1M@PBNONODE@?$AAf?$AAa?$AA?9?$AAi?$AAr?$AA?$AA@ 0000000180018808     LIBCMT:winapinls.obj
 0002:00004818       ??_C@_1M@JEEHPMIL@?$AAf?$AAi?$AA?9?$AAf?$AAi?$AA?$AA@ 0000000180018818     LIBCMT:winapinls.obj
 0002:00004828       ??_C@_1M@LMDCNDBA@?$AAf?$AAo?$AA?9?$AAf?$AAo?$AA?$AA@ 0000000180018828     LIBCMT:winapinls.obj
 0002:00004838       ??_C@_1M@JKEOHLDK@?$AAf?$AAr?$AA?9?$AAb?$AAe?$AA?$AA@ 0000000180018838     LIBCMT:winapinls.obj
 0002:00004848       ??_C@_1M@NOHADPMI@?$AAf?$AAr?$AA?9?$AAc?$AAa?$AA?$AA@ 0000000180018848     LIBCMT:winapinls.obj
 0002:00004858       ??_C@_1M@KDHIHAEC@?$AAf?$AAr?$AA?9?$AAc?$AAh?$AA?$AA@ 0000000180018858     LIBCMT:winapinls.obj
 0002:00004868       ??_C@_1M@MMBBFGAK@?$AAf?$AAr?$AA?9?$AAf?$AAr?$AA?$AA@ 0000000180018868     LIBCMT:winapinls.obj
 0002:00004878       ??_C@_1M@PAFNENNF@?$AAf?$AAr?$AA?9?$AAl?$AAu?$AA?$AA@ 0000000180018878     LIBCMT:winapinls.obj
 0002:00004888       ??_C@_1M@EOHDJGDD@?$AAf?$AAr?$AA?9?$AAm?$AAc?$AA?$AA@ 0000000180018888     LIBCMT:winapinls.obj
 0002:00004898       ??_C@_1M@FAPLLOPF@?$AAg?$AAl?$AA?9?$AAe?$AAs?$AA?$AA@ 0000000180018898     LIBCMT:winapinls.obj
 0002:000048a8       ??_C@_1M@FOPBFLOO@?$AAg?$AAu?$AA?9?$AAi?$AAn?$AA?$AA@ 00000001800188a8     LIBCMT:winapinls.obj
 0002:000048b8       ??_C@_1M@KBMCINPM@?$AAh?$AAe?$AA?9?$AAi?$AAl?$AA?$AA@ 00000001800188b8     LIBCMT:winapinls.obj
 0002:000048c8       ??_C@_1M@BBPHKFPJ@?$AAh?$AAi?$AA?9?$AAi?$AAn?$AA?$AA@ 00000001800188c8     LIBCMT:winapinls.obj
 0002:000048d8       ??_C@_1M@PMBNDPHD@?$AAh?$AAr?$AA?9?$AAb?$AAa?$AA?$AA@ 00000001800188d8     LIBCMT:winapinls.obj
 0002:000048e8       ??_C@_1M@BPCKOEGE@?$AAh?$AAr?$AA?9?$AAh?$AAr?$AA?$AA@ 00000001800188e8     LIBCMT:winapinls.obj
 0002:000048f8       ??_C@_1M@GACBMHKE@?$AAh?$AAu?$AA?9?$AAh?$AAu?$AA?$AA@ 00000001800188f8     LIBCMT:winapinls.obj
 0002:00004908       ??_C@_1M@MILPAJJC@?$AAh?$AAy?$AA?9?$AAa?$AAm?$AA?$AA@ 0000000180018908     LIBCMT:winapinls.obj
 0002:00004918       ??_C@_1M@BABBICEC@?$AAi?$AAd?$AA?9?$AAi?$AAd?$AA?$AA@ 0000000180018918     LIBCMT:winapinls.obj
 0002:00004928       ??_C@_1M@BIKNHHPF@?$AAi?$AAs?$AA?9?$AAi?$AAs?$AA?$AA@ 0000000180018928     LIBCMT:winapinls.obj
 0002:00004938       ??_C@_1M@NMPCJPHE@?$AAi?$AAt?$AA?9?$AAc?$AAh?$AA?$AA@ 0000000180018938     LIBCMT:winapinls.obj
 0002:00004948       ??_C@_1M@GHKGFEDF@?$AAi?$AAt?$AA?9?$AAi?$AAt?$AA?$AA@ 0000000180018948     LIBCMT:winapinls.obj
 0002:00004958       ??_C@_1M@NIEJCJJA@?$AAj?$AAa?$AA?9?$AAj?$AAp?$AA?$AA@ 0000000180018958     LIBCMT:winapinls.obj
 0002:00004968       ??_C@_1M@JILFNBIM@?$AAk?$AAa?$AA?9?$AAg?$AAe?$AA?$AA@ 0000000180018968     LIBCMT:winapinls.obj
 0002:00004978       ??_C@_1M@PACPMGPH@?$AAk?$AAk?$AA?9?$AAk?$AAz?$AA?$AA@ 0000000180018978     LIBCMT:winapinls.obj
 0002:00004988       ??_C@_1M@IELFGMHA@?$AAk?$AAn?$AA?9?$AAi?$AAn?$AA?$AA@ 0000000180018988     LIBCMT:winapinls.obj
 0002:00004998       ??_C@_1O@IBBJHCH@?$AAk?$AAo?$AAk?$AA?9?$AAi?$AAn?$AA?$AA@ 0000000180018998     LIBCMT:winapinls.obj
 0002:000049a8       ??_C@_1M@DMHAEOGC@?$AAk?$AAo?$AA?9?$AAk?$AAr?$AA?$AA@ 00000001800189a8     LIBCMT:winapinls.obj
 0002:000049b8       ??_C@_1M@HBAHBIGA@?$AAk?$AAy?$AA?9?$AAk?$AAg?$AA?$AA@ 00000001800189b8     LIBCMT:winapinls.obj
 0002:000049c8       ??_C@_1M@KPMILCJG@?$AAl?$AAt?$AA?9?$AAl?$AAt?$AA?$AA@ 00000001800189c8     LIBCMT:winapinls.obj
 0002:000049d8       ??_C@_1M@BDEKKCA@?$AAl?$AAv?$AA?9?$AAl?$AAv?$AA?$AA@ 00000001800189d8     LIBCMT:winapinls.obj
 0002:000049e8       ??_C@_1M@ELCKCCJJ@?$AAm?$AAi?$AA?9?$AAn?$AAz?$AA?$AA@ 00000001800189e8     LIBCMT:winapinls.obj
 0002:000049f8       ??_C@_1M@CBOOLAPA@?$AAm?$AAk?$AA?9?$AAm?$AAk?$AA?$AA@ 00000001800189f8     LIBCMT:winapinls.obj
 0002:00004a08       ??_C@_1M@GPHNBJKN@?$AAm?$AAl?$AA?9?$AAi?$AAn?$AA?$AA@ 0000000180018a08     LIBCMT:winapinls.obj
 0002:00004a18       ??_C@_1M@PABJILIG@?$AAm?$AAn?$AA?9?$AAm?$AAn?$AA?$AA@ 0000000180018a18     LIBCMT:winapinls.obj
 0002:00004a28       ??_C@_1M@FGBKKIPG@?$AAm?$AAr?$AA?9?$AAi?$AAn?$AA?$AA@ 0000000180018a28     LIBCMT:winapinls.obj
 0002:00004a38       ??_C@_1M@NDBPDDAL@?$AAm?$AAs?$AA?9?$AAb?$AAn?$AA?$AA@ 0000000180018a38     LIBCMT:winapinls.obj
 0002:00004a48       ??_C@_1M@OPIHOOPI@?$AAm?$AAs?$AA?9?$AAm?$AAy?$AA?$AA@ 0000000180018a48     LIBCMT:winapinls.obj
 0002:00004a58       ??_C@_1M@PPDBCNFM@?$AAm?$AAt?$AA?9?$AAm?$AAt?$AA?$AA@ 0000000180018a58     LIBCMT:winapinls.obj
 0002:00004a68       ??_C@_1M@KDJDKMDD@?$AAn?$AAb?$AA?9?$AAn?$AAo?$AA?$AA@ 0000000180018a68     LIBCMT:winapinls.obj
 0002:00004a78       ??_C@_1M@KFCFLMJP@?$AAn?$AAl?$AA?9?$AAb?$AAe?$AA?$AA@ 0000000180018a78     LIBCMT:winapinls.obj
 0002:00004a88       ??_C@_1M@KPOPDDGO@?$AAn?$AAl?$AA?9?$AAn?$AAl?$AA?$AA@ 0000000180018a88     LIBCMT:winapinls.obj
 0002:00004a98       ??_C@_1M@LJKPEMLN@?$AAn?$AAn?$AA?9?$AAn?$AAo?$AA?$AA@ 0000000180018a98     LIBCMT:winapinls.obj
 0002:00004aa8       ??_C@_1M@BDGHHBFL@?$AAn?$AAs?$AA?9?$AAz?$AAa?$AA?$AA@ 0000000180018aa8     LIBCMT:winapinls.obj
 0002:00004ab8       ??_C@_1M@IDEHOAP@?$AAp?$AAa?$AA?9?$AAi?$AAn?$AA?$AA@ 0000000180018ab8     LIBCMT:winapinls.obj
 0002:00004ac8       ??_C@_1M@HDBKGOGH@?$AAp?$AAl?$AA?9?$AAp?$AAl?$AA?$AA@ 0000000180018ac8     LIBCMT:winapinls.obj
 0002:00004ad8       ??_C@_1M@LJLLCMEH@?$AAp?$AAt?$AA?9?$AAb?$AAr?$AA?$AA@ 0000000180018ad8     LIBCMT:winapinls.obj
 0002:00004ae8       ??_C@_1M@NCMONAAL@?$AAp?$AAt?$AA?9?$AAp?$AAt?$AA?$AA@ 0000000180018ae8     LIBCMT:winapinls.obj
 0002:00004af8       ??_C@_1O@EAKMAJDN@?$AAq?$AAu?$AAz?$AA?9?$AAb?$AAo?$AA?$AA@ 0000000180018af8     LIBCMT:winapinls.obj
 0002:00004b08       ??_C@_1O@BHHPIGDN@?$AAq?$AAu?$AAz?$AA?9?$AAe?$AAc?$AA?$AA@ 0000000180018b08     LIBCMT:winapinls.obj
 0002:00004b18       ??_C@_1O@GBAPEKMJ@?$AAq?$AAu?$AAz?$AA?9?$AAp?$AAe?$AA?$AA@ 0000000180018b18     LIBCMT:winapinls.obj
 0002:00004b28       ??_C@_1M@CLGLEFBO@?$AAr?$AAo?$AA?9?$AAr?$AAo?$AA?$AA@ 0000000180018b28     LIBCMT:winapinls.obj
 0002:00004b38       ??_C@_1M@CEEDODME@?$AAr?$AAu?$AA?9?$AAr?$AAu?$AA?$AA@ 0000000180018b38     LIBCMT:winapinls.obj
 0002:00004b48       ??_C@_1M@HPKKKMPP@?$AAs?$AAa?$AA?9?$AAi?$AAn?$AA?$AA@ 0000000180018b48     LIBCMT:winapinls.obj
 0002:00004b58       ??_C@_1M@BKMAIGOJ@?$AAs?$AAe?$AA?9?$AAf?$AAi?$AA?$AA@ 0000000180018b58     LIBCMT:winapinls.obj
 0002:00004b68       ??_C@_1M@NDPIFLFI@?$AAs?$AAe?$AA?9?$AAn?$AAo?$AA?$AA@ 0000000180018b68     LIBCMT:winapinls.obj
 0002:00004b78       ??_C@_1M@DANKKHJ@?$AAs?$AAe?$AA?9?$AAs?$AAe?$AA?$AA@ 0000000180018b78     LIBCMT:winapinls.obj
 0002:00004b88       ??_C@_1M@PNBLONPJ@?$AAs?$AAk?$AA?9?$AAs?$AAk?$AA?$AA@ 0000000180018b88     LIBCMT:winapinls.obj
 0002:00004b98       ??_C@_1M@LFMODOAL@?$AAs?$AAl?$AA?9?$AAs?$AAi?$AA?$AA@ 0000000180018b98     LIBCMT:winapinls.obj
 0002:00004ba8       ??_C@_1O@DFKOMPG@?$AAs?$AAm?$AAa?$AA?9?$AAn?$AAo?$AA?$AA@ 0000000180018ba8     LIBCMT:winapinls.obj
 0002:00004bb8       ??_C@_1O@NDKPBNNH@?$AAs?$AAm?$AAa?$AA?9?$AAs?$AAe?$AA?$AA@ 0000000180018bb8     LIBCMT:winapinls.obj
 0002:00004bc8       ??_C@_1O@PLLKBHAB@?$AAs?$AAm?$AAj?$AA?9?$AAn?$AAo?$AA?$AA@ 0000000180018bc8     LIBCMT:winapinls.obj
 0002:00004bd8       ??_C@_1O@CLEPOGCA@?$AAs?$AAm?$AAj?$AA?9?$AAs?$AAe?$AA?$AA@ 0000000180018bd8     LIBCMT:winapinls.obj
 0002:00004be8       ??_C@_1O@DLGJGKMK@?$AAs?$AAm?$AAn?$AA?9?$AAf?$AAi?$AA?$AA@ 0000000180018be8     LIBCMT:winapinls.obj
 0002:00004bf8       ??_C@_1O@OJDJGAJC@?$AAs?$AAm?$AAs?$AA?9?$AAf?$AAi?$AA?$AA@ 0000000180018bf8     LIBCMT:winapinls.obj
 0002:00004c08       ??_C@_1M@BOFOGHPB@?$AAs?$AAq?$AA?9?$AAa?$AAl?$AA?$AA@ 0000000180018c08     LIBCMT:winapinls.obj
 0002:00004c18       ??_C@_1BG@LJBBIPGB@?$AAs?$AAr?$AA?9?$AAb?$AAa?$AA?9?$AAc?$AAy?$AAr?$AAl?$AA?$AA@ 0000000180018c18     LIBCMT:winapinls.obj
 0002:00004c30       ??_C@_1BG@JLBENFOE@?$AAs?$AAr?$AA?9?$AAb?$AAa?$AA?9?$AAl?$AAa?$AAt?$AAn?$AA?$AA@ 0000000180018c30     LIBCMT:winapinls.obj
 0002:00004c48       ??_C@_1BG@KODPNHE@?$AAs?$AAr?$AA?9?$AAs?$AAp?$AA?9?$AAc?$AAy?$AAr?$AAl?$AA?$AA@ 0000000180018c48     LIBCMT:winapinls.obj
 0002:00004c60       ??_C@_1BG@CIOGKHPB@?$AAs?$AAr?$AA?9?$AAs?$AAp?$AA?9?$AAl?$AAa?$AAt?$AAn?$AA?$AA@ 0000000180018c60     LIBCMT:winapinls.obj
 0002:00004c78       ??_C@_1M@NGFJLMAC@?$AAs?$AAv?$AA?9?$AAf?$AAi?$AA?$AA@ 0000000180018c78     LIBCMT:winapinls.obj
 0002:00004c88       ??_C@_1M@MPJEJAJC@?$AAs?$AAv?$AA?9?$AAs?$AAe?$AA?$AA@ 0000000180018c88     LIBCMT:winapinls.obj
 0002:00004c98       ??_C@_1M@MPNDHLFK@?$AAs?$AAw?$AA?9?$AAk?$AAe?$AA?$AA@ 0000000180018c98     LIBCMT:winapinls.obj
 0002:00004ca8       ??_C@_1O@KOHBJJI@?$AAs?$AAy?$AAr?$AA?9?$AAs?$AAy?$AA?$AA@ 0000000180018ca8     LIBCMT:winapinls.obj
 0002:00004cb8       ??_C@_1M@LDCEFHA@?$AAt?$AAa?$AA?9?$AAi?$AAn?$AA?$AA@ 0000000180018cb8     LIBCMT:winapinls.obj
 0002:00004cc8       ??_C@_1M@CNJOFAK@?$AAt?$AAe?$AA?9?$AAi?$AAn?$AA?$AA@ 0000000180018cc8     LIBCMT:winapinls.obj
 0002:00004cd8       ??_C@_1M@GNAECACD@?$AAt?$AAh?$AA?9?$AAt?$AAh?$AA?$AA@ 0000000180018cd8     LIBCMT:winapinls.obj
 0002:00004ce8       ??_C@_1M@CHBIHOJO@?$AAt?$AAn?$AA?9?$AAz?$AAa?$AA?$AA@ 0000000180018ce8     LIBCMT:winapinls.obj
 0002:00004cf8       ??_C@_1M@GCCMIGPJ@?$AAt?$AAr?$AA?9?$AAt?$AAr?$AA?$AA@ 0000000180018cf8     LIBCMT:winapinls.obj
 0002:00004d08       ??_C@_1M@CELMCNBK@?$AAt?$AAt?$AA?9?$AAr?$AAu?$AA?$AA@ 0000000180018d08     LIBCMT:winapinls.obj
 0002:00004d18       ??_C@_1M@KLMCELGA@?$AAu?$AAk?$AA?9?$AAu?$AAa?$AA?$AA@ 0000000180018d18     LIBCMT:winapinls.obj
 0002:00004d28       ??_C@_1M@EPAJJAJF@?$AAu?$AAr?$AA?9?$AAp?$AAk?$AA?$AA@ 0000000180018d28     LIBCMT:winapinls.obj
 0002:00004d38       ??_C@_1BG@GEGPMCDJ@?$AAu?$AAz?$AA?9?$AAu?$AAz?$AA?9?$AAc?$AAy?$AAr?$AAl?$AA?$AA@ 0000000180018d38     LIBCMT:winapinls.obj
 0002:00004d50       ??_C@_1BG@EGGKJILM@?$AAu?$AAz?$AA?9?$AAu?$AAz?$AA?9?$AAl?$AAa?$AAt?$AAn?$AA?$AA@ 0000000180018d50     LIBCMT:winapinls.obj
 0002:00004d68       ??_C@_1M@GFOCLFF@?$AAv?$AAi?$AA?9?$AAv?$AAn?$AA?$AA@ 0000000180018d68     LIBCMT:winapinls.obj
 0002:00004d78       ??_C@_1M@CPAMEDFI@?$AAx?$AAh?$AA?9?$AAz?$AAa?$AA?$AA@ 0000000180018d78     LIBCMT:winapinls.obj
 0002:00004d88       ??_C@_1O@EBKIFIGN@?$AAz?$AAh?$AA?9?$AAc?$AAh?$AAs?$AA?$AA@ 0000000180018d88     LIBCMT:winapinls.obj
 0002:00004d98       ??_C@_1O@NMHPGANE@?$AAz?$AAh?$AA?9?$AAc?$AAh?$AAt?$AA?$AA@ 0000000180018d98     LIBCMT:winapinls.obj
 0002:00004da8       ??_C@_1M@LPINJOMC@?$AAz?$AAh?$AA?9?$AAc?$AAn?$AA?$AA@ 0000000180018da8     LIBCMT:winapinls.obj
 0002:00004db8       ??_C@_1M@OCJEJODD@?$AAz?$AAh?$AA?9?$AAh?$AAk?$AA?$AA@ 0000000180018db8     LIBCMT:winapinls.obj
 0002:00004dc8       ??_C@_1M@DNDLJINH@?$AAz?$AAh?$AA?9?$AAm?$AAo?$AA?$AA@ 0000000180018dc8     LIBCMT:winapinls.obj
 0002:00004dd8       ??_C@_1M@MBFDNDND@?$AAz?$AAh?$AA?9?$AAs?$AAg?$AA?$AA@ 0000000180018dd8     LIBCMT:winapinls.obj
 0002:00004de8       ??_C@_1M@IMEPLEPE@?$AAz?$AAh?$AA?9?$AAt?$AAw?$AA?$AA@ 0000000180018de8     LIBCMT:winapinls.obj
 0002:00004df8       ??_C@_1M@BBGHNHJP@?$AAz?$AAu?$AA?9?$AAz?$AAa?$AA?$AA@ 0000000180018df8     LIBCMT:winapinls.obj
 0002:00004e20       ??_C@_03KHJOGHMM@exp?$AA@  0000000180018e20     LIBCMT:fpexcept.obj
 0002:00004e24       ??_C@_03JGHBODFD@pow?$AA@  0000000180018e24     LIBCMT:fpexcept.obj
 0002:00004e28       ??_C@_03MGHMBJCF@log?$AA@  0000000180018e28     LIBCMT:fpexcept.obj
 0002:00004e2c       ??_C@_05HGHHAHAP@log10?$AA@ 0000000180018e2c     LIBCMT:fpexcept.obj
 0002:00004e34       ??_C@_04COOMCNPB@sinh?$AA@ 0000000180018e34     LIBCMT:fpexcept.obj
 0002:00004e3c       ??_C@_04HPJJNFIM@cosh?$AA@ 0000000180018e3c     LIBCMT:fpexcept.obj
 0002:00004e44       ??_C@_04FJHINJAO@tanh?$AA@ 0000000180018e44     LIBCMT:fpexcept.obj
 0002:00004e4c       ??_C@_04FIHNOPOL@asin?$AA@ 0000000180018e4c     LIBCMT:fpexcept.obj
 0002:00004e54       ??_C@_04PDIFKINK@acos?$AA@ 0000000180018e54     LIBCMT:fpexcept.obj
 0002:00004e5c       ??_C@_04MLLJIGOK@atan?$AA@ 0000000180018e5c     LIBCMT:fpexcept.obj
 0002:00004e64       ??_C@_05KNGEOGJB@atan2?$AA@ 0000000180018e64     LIBCMT:fpexcept.obj
 0002:00004e6c       ??_C@_04EIAKFFMI@sqrt?$AA@ 0000000180018e6c     LIBCMT:fpexcept.obj
 0002:00004e74       ??_C@_03BLEJJJBH@sin?$AA@  0000000180018e74     LIBCMT:fpexcept.obj
 0002:00004e78       ??_C@_03LALBNOCG@cos?$AA@  0000000180018e78     LIBCMT:fpexcept.obj
 0002:00004e7c       ??_C@_03IIINPABG@tan?$AA@  0000000180018e7c     LIBCMT:fpexcept.obj
 0002:00004e80       ??_C@_04GFPJNGEK@ceil?$AA@ 0000000180018e80     LIBCMT:fpexcept.obj
 0002:00004e88       ??_C@_05PBJFFIGL@floor?$AA@ 0000000180018e88     LIBCMT:fpexcept.obj
 0002:00004e90       ??_C@_04ODHECPBC@fabs?$AA@ 0000000180018e90     LIBCMT:fpexcept.obj
 0002:00004e98       ??_C@_04EHEDPDJG@modf?$AA@ 0000000180018e98     LIBCMT:fpexcept.obj
 0002:00004ea0       ??_C@_05CEJMAHNP@ldexp?$AA@ 0000000180018ea0     LIBCMT:fpexcept.obj
 0002:00004ea8       ??_C@_05KBKMEMPO@_cabs?$AA@ 0000000180018ea8     LIBCMT:fpexcept.obj
 0002:00004eb0       ??_C@_04KEPJIHGP@fmod?$AA@ 0000000180018eb0     LIBCMT:fpexcept.obj
 0002:00004eb8       ??_C@_05GKKHEGJL@frexp?$AA@ 0000000180018eb8     LIBCMT:fpexcept.obj
 0002:00004ec0       ??_C@_03MJLDFKDL@_y0?$AA@  0000000180018ec0     LIBCMT:fpexcept.obj
 0002:00004ec4       ??_C@_03NAKIGLHK@_y1?$AA@  0000000180018ec4     LIBCMT:fpexcept.obj
 0002:00004ec8       ??_C@_03ONILCKOB@_yn?$AA@  0000000180018ec8     LIBCMT:fpexcept.obj
 0002:00004ecc       ??_C@_05JGDBENOH@_logb?$AA@ 0000000180018ecc     LIBCMT:fpexcept.obj
 0002:00004ed8       ??_C@_0L@KDOEJCKC@_nextafter?$AA@ 0000000180018ed8     LIBCMT:fpexcept.obj
 0002:00004ee8       __real@0000000000000000    0000000180018ee8     LIBCMT:fpexcept.obj
 0002:00004ef0       ??_C@_05KLBDPFGC@e?$CL000?$AA@ 0000000180018ef0     LIBCMT:cvt.obj
 0002:00004f00       __newctype                 0000000180018f00     LIBCMT:ctype.obj
 0002:00005200       _wctype                    0000000180019200     LIBCMT:ctype.obj
 0002:00005410       __newclmap                 0000000180019410     LIBCMT:ctype.obj
 0002:00005590       __newcumap                 0000000180019590     LIBCMT:ctype.obj
 0002:00005710       __rg_language_count        0000000180019710     LIBCMT:getqloc.obj
 0002:00005714       __rg_country_count         0000000180019714     LIBCMT:getqloc.obj
 0002:00005720       __lookuptable_s            0000000180019720     LIBCMT:outputs.obj
 0002:00005a98       ??_C@_08EHJDFFNH@__based?$CI?$AA@ 0000000180019a98     LIBCMT:undname.obj
 0002:00005aa8       ??_C@_07KOLFKCDI@__cdecl?$AA@ 0000000180019aa8     LIBCMT:undname.obj
 0002:00005ab0       ??_C@_08GHMPAG@__pascal?$AA@ 0000000180019ab0     LIBCMT:undname.obj
 0002:00005ac0       ??_C@_09IFJBGAPI@__stdcall?$AA@ 0000000180019ac0     LIBCMT:undname.obj
 0002:00005ad0       ??_C@_0L@NPHFGOKO@__thiscall?$AA@ 0000000180019ad0     LIBCMT:undname.obj
 0002:00005ae0       ??_C@_0L@JMKHOMEK@__fastcall?$AA@ 0000000180019ae0     LIBCMT:undname.obj
 0002:00005af0       ??_C@_0N@BCKKPABJ@__vectorcall?$AA@ 0000000180019af0     LIBCMT:undname.obj
 0002:00005b00       ??_C@_09HIJEGCPM@__clrcall?$AA@ 0000000180019b00     LIBCMT:undname.obj
 0002:00005b0c       ??_C@_06GHPCKEAG@__eabi?$AA@ 0000000180019b0c     LIBCMT:undname.obj
 0002:00005b18       ??_C@_07JOMMBBKO@__ptr64?$AA@ 0000000180019b18     LIBCMT:undname.obj
 0002:00005b20       ??_C@_0L@PILCLIHE@__restrict?$AA@ 0000000180019b20     LIBCMT:undname.obj
 0002:00005b30       ??_C@_0M@GFIIJFMG@__unaligned?$AA@ 0000000180019b30     LIBCMT:undname.obj
 0002:00005b40       ??_C@_09DHDLOLLB@restrict?$CI?$AA@ 0000000180019b40     LIBCMT:undname.obj
 0002:00005b4a       ??_C@_00CNPNBAHC@?$AA@     0000000180019b4a     LIBCMT:undname.obj
 0002:00005b4c       ??_C@_04NIHEBCM@?5new?$AA@ 0000000180019b4c     LIBCMT:undname.obj
 0002:00005b58       ??_C@_07FPCDHGMM@?5delete?$AA@ 0000000180019b58     LIBCMT:undname.obj
 0002:00005b60       ??_C@_01NEMOKFLO@?$DN?$AA@ 0000000180019b60     LIBCMT:undname.obj
 0002:00005b64       ??_C@_02GPIOPFAK@?$DO?$DO?$AA@ 0000000180019b64     LIBCMT:undname.obj
 0002:00005b68       ??_C@_02FODMEDOG@?$DM?$DM?$AA@ 0000000180019b68     LIBCMT:undname.obj
 0002:00005b6c       ??_C@_01DCLJPIOD@?$CB?$AA@ 0000000180019b6c     LIBCMT:undname.obj
 0002:00005b70       ??_C@_02EGOFBIJA@?$DN?$DN?$AA@ 0000000180019b70     LIBCMT:undname.obj
 0002:00005b74       ??_C@_02FDNJECIE@?$CB?$DN?$AA@ 0000000180019b74     LIBCMT:undname.obj
 0002:00005b78       ??_C@_02GPECMEKF@?$FL?$FN?$AA@ 0000000180019b78     LIBCMT:undname.obj
 0002:00005b80       ??_C@_08LHJFAFGD@operator?$AA@ 0000000180019b80     LIBCMT:undname.obj
 0002:00005b8c       ??_C@_02HBOOOICD@?9?$DO?$AA@ 0000000180019b8c     LIBCMT:undname.obj
 0002:00005b90       ??_C@_01NBENCBCI@?$CK?$AA@ 0000000180019b90     LIBCMT:undname.obj
 0002:00005b94       ??_C@_02ECNGHCIF@?$CL?$CL?$AA@ 0000000180019b94     LIBCMT:undname.obj
 0002:00005b98       ??_C@_02BAABKJLB@?9?9?$AA@ 0000000180019b98     LIBCMT:undname.obj
 0002:00005b9c       ??_C@_01JOAMLHOP@?9?$AA@   0000000180019b9c     LIBCMT:undname.obj
 0002:00005ba0       ??_C@_01MIFGBAGJ@?$CL?$AA@ 0000000180019ba0     LIBCMT:undname.obj
 0002:00005ba4       ??_C@_01HNPIGOCE@?$CG?$AA@ 0000000180019ba4     LIBCMT:undname.obj
 0002:00005ba8       ??_C@_03MNHNFDLC@?9?$DO?$CK?$AA@ 0000000180019ba8     LIBCMT:undname.obj
 0002:00005bac       ??_C@_01KMDKNFGN@?1?$AA@   0000000180019bac     LIBCMT:undname.obj
 0002:00005bb0       ??_C@_01FGNFDNOH@?$CF?$AA@ 0000000180019bb0     LIBCMT:undname.obj
 0002:00005bb4       ??_C@_01MNNFJEPP@?$DM?$AA@ 0000000180019bb4     LIBCMT:undname.obj
 0002:00005bb8       ??_C@_02EHCHHCKH@?$DM?$DN?$AA@ 0000000180019bb8     LIBCMT:undname.obj
 0002:00005bbc       ??_C@_01PPODPGHN@?$DO?$AA@ 0000000180019bbc     LIBCMT:undname.obj
 0002:00005bc0       ??_C@_02EEKDKGMJ@?$DO?$DN?$AA@ 0000000180019bc0     LIBCMT:undname.obj
 0002:00005bc4       ??_C@_01IHBHIGKO@?0?$AA@   0000000180019bc4     LIBCMT:undname.obj
 0002:00005bc8       ??_C@_02HCKGKOFO@?$CI?$CJ?$AA@ 0000000180019bc8     LIBCMT:undname.obj
 0002:00005bcc       ??_C@_01PJKLJHI@?$HO?$AA@  0000000180019bcc     LIBCMT:undname.obj
 0002:00005bd0       ??_C@_01JKBOJNNK@?$FO?$AA@ 0000000180019bd0     LIBCMT:undname.obj
 0002:00005bd4       ??_C@_01DNKMNLPK@?$HM?$AA@ 0000000180019bd4     LIBCMT:undname.obj
 0002:00005bd8       ??_C@_02PPKAJPJL@?$CG?$CG?$AA@ 0000000180019bd8     LIBCMT:undname.obj
 0002:00005bdc       ??_C@_02NONPIBCD@?$HM?$HM?$AA@ 0000000180019bdc     LIBCMT:undname.obj
 0002:00005be0       ??_C@_02FPIMKNGF@?$CK?$DN?$AA@ 0000000180019be0     LIBCMT:undname.obj
 0002:00005be4       ??_C@_02FOEOMHFC@?$CL?$DN?$AA@ 0000000180019be4     LIBCMT:undname.obj
 0002:00005be8       ??_C@_02FKMDLLOA@?9?$DN?$AA@ 0000000180019be8     LIBCMT:undname.obj
 0002:00005bec       ??_C@_02FJEHGPIO@?1?$DN?$AA@ 0000000180019bec     LIBCMT:undname.obj
 0002:00005bf0       ??_C@_02FENAOKFI@?$CF?$DN?$AA@ 0000000180019bf0     LIBCMT:undname.obj
 0002:00005bf4       ??_C@_03IKFCCPFF@?$DO?$DO?$DN?$AA@ 0000000180019bf4     LIBCMT:undname.obj
 0002:00005bf8       ??_C@_03CDNPDDLA@?$DM?$DM?$DN?$AA@ 0000000180019bf8     LIBCMT:undname.obj
 0002:00005bfc       ??_C@_02FGJGFEAB@?$CG?$DN?$AA@ 0000000180019bfc     LIBCMT:undname.obj
 0002:00005c00       ??_C@_02DHLNPPGH@?$HM?$DN?$AA@ 0000000180019c00     LIBCMT:undname.obj
 0002:00005c04       ??_C@_02MHEGNOJ@?$FO?$DN?$AA@ 0000000180019c04     LIBCMT:undname.obj
 0002:00005c08       ??_C@_09IFPLHPGF@?$GAvftable?8?$AA@ 0000000180019c08     LIBCMT:undname.obj
 0002:00005c18       ??_C@_09BLBHBJP@?$GAvbtable?8?$AA@ 0000000180019c18     LIBCMT:undname.obj
 0002:00005c28       ??_C@_07FEEIOKP@?$GAvcall?8?$AA@ 0000000180019c28     LIBCMT:undname.obj
 0002:00005c30       ??_C@_08LLFFHHDJ@?$GAtypeof?8?$AA@ 0000000180019c30     LIBCMT:undname.obj
 0002:00005c40       ??_C@_0BF@KDPPACIK@?$GAlocal?5static?5guard?8?$AA@ 0000000180019c40     LIBCMT:undname.obj
 0002:00005c58       ??_C@_08OBABFOLI@?$GAstring?8?$AA@ 0000000180019c58     LIBCMT:undname.obj
 0002:00005c68       ??_C@_0BD@JDLKDPAB@?$GAvbase?5destructor?8?$AA@ 0000000180019c68     LIBCMT:undname.obj
 0002:00005c80       ??_C@_0BN@DEGPLNFK@?$GAvector?5deleting?5destructor?8?$AA@ 0000000180019c80     LIBCMT:undname.obj
 0002:00005ca0       ??_C@_0BO@OBMKPJIG@?$GAdefault?5constructor?5closure?8?$AA@ 0000000180019ca0     LIBCMT:undname.obj
 0002:00005cc0       ??_C@_0BN@IMDCHIKM@?$GAscalar?5deleting?5destructor?8?$AA@ 0000000180019cc0     LIBCMT:undname.obj
 0002:00005ce0       ??_C@_0BO@PFGOCPJJ@?$GAvector?5constructor?5iterator?8?$AA@ 0000000180019ce0     LIBCMT:undname.obj
 0002:00005d00       ??_C@_0BN@LFPFMEDL@?$GAvector?5destructor?5iterator?8?$AA@ 0000000180019d00     LIBCMT:undname.obj
 0002:00005d20       ??_C@_0CE@IKBNEHA@?$GAvector?5vbase?5constructor?5iterat@ 0000000180019d20     LIBCMT:undname.obj
 0002:00005d48       ??_C@_0BL@NILFHHPC@?$GAvirtual?5displacement?5map?8?$AA@ 0000000180019d48     LIBCMT:undname.obj
 0002:00005d68       ??_C@_0CB@JONCMFFK@?$GAeh?5vector?5constructor?5iterator?8@ 0000000180019d68     LIBCMT:undname.obj
 0002:00005d90       ??_C@_0CA@GCEOPDGL@?$GAeh?5vector?5destructor?5iterator?8?$AA@ 0000000180019d90     LIBCMT:undname.obj
 0002:00005db0       ??_C@_0CH@OOJPLCPH@?$GAeh?5vector?5vbase?5constructor?5ite@ 0000000180019db0     LIBCMT:undname.obj
 0002:00005dd8       ??_C@_0BL@LLKPOHJI@?$GAcopy?5constructor?5closure?8?$AA@ 0000000180019dd8     LIBCMT:undname.obj
 0002:00005df8       ??_C@_0BA@KBCDOMBN@?$GAudt?5returning?8?$AA@ 0000000180019df8     LIBCMT:undname.obj
 0002:00005e08       ??_C@_03KLGMFNMG@?$GAEH?$AA@ 0000000180019e08     LIBCMT:undname.obj
 0002:00005e0c       ??_C@_05KHLCHHI@?$GARTTI?$AA@ 0000000180019e0c     LIBCMT:undname.obj
 0002:00005e18       ??_C@_0BA@KKLDJDLB@?$GAlocal?5vftable?8?$AA@ 0000000180019e18     LIBCMT:undname.obj
 0002:00005e28       ??_C@_0CE@IIHCMGGL@?$GAlocal?5vftable?5constructor?5closu@ 0000000180019e28     LIBCMT:undname.obj
 0002:00005e4c       ??_C@_06FHBGPFGH@?5new?$FL?$FN?$AA@ 0000000180019e4c     LIBCMT:undname.obj
 0002:00005e58       ??_C@_09LBNFPBCA@?5delete?$FL?$FN?$AA@ 0000000180019e58     LIBCMT:undname.obj
 0002:00005e68       ??_C@_0P@HJKNJFNN@?$GAomni?5callsig?8?$AA@ 0000000180019e68     LIBCMT:undname.obj
 0002:00005e78       ??_C@_0BL@CNOONJFP@?$GAplacement?5delete?5closure?8?$AA@ 0000000180019e78     LIBCMT:undname.obj
 0002:00005e98       ??_C@_0BN@CKNJLHMB@?$GAplacement?5delete?$FL?$FN?5closure?8?$AA@ 0000000180019e98     LIBCMT:undname.obj
 0002:00005eb8       ??_C@_0CG@CFDHKGGD@?$GAmanaged?5vector?5constructor?5iter@ 0000000180019eb8     LIBCMT:undname.obj
 0002:00005ee0       ??_C@_0CF@IMGKMJNO@?$GAmanaged?5vector?5destructor?5itera@ 0000000180019ee0     LIBCMT:undname.obj
 0002:00005f08       ??_C@_0CG@HLDDJMAG@?$GAeh?5vector?5copy?5constructor?5iter@ 0000000180019f08     LIBCMT:undname.obj
 0002:00005f30       ??_C@_0CM@FCBBDIGB@?$GAeh?5vector?5vbase?5copy?5constructo@ 0000000180019f30     LIBCMT:undname.obj
 0002:00005f60       ??_C@_0BL@CLIPGLGB@?$GAdynamic?5initializer?5for?5?8?$AA@ 0000000180019f60     LIBCMT:undname.obj
 0002:00005f80       ??_C@_0CB@PDBIFEP@?$GAdynamic?5atexit?5destructor?5for?5?8@ 0000000180019f80     LIBCMT:undname.obj
 0002:00005fa8       ??_C@_0CD@CGAJBKEJ@?$GAvector?5copy?5constructor?5iterato@ 0000000180019fa8     LIBCMT:undname.obj
 0002:00005fd0       ??_C@_0CJ@GJELGAMM@?$GAvector?5vbase?5copy?5constructor?5i@ 0000000180019fd0     LIBCMT:undname.obj
 0002:00006000       ??_C@_0CL@FGIJHLCE@?$GAmanaged?5vector?5copy?5constructor@ 000000018001a000     LIBCMT:undname.obj
 0002:00006030       ??_C@_0BM@PMGGMLDN@?$GAlocal?5static?5thread?5guard?8?$AA@ 000000018001a030     LIBCMT:undname.obj
 0002:00006050       ??_C@_0BC@DAFEJGAK@?5Type?5Descriptor?8?$AA@ 000000018001a050     LIBCMT:undname.obj
 0002:00006068       ??_C@_0BM@LDKODKLH@?5Base?5Class?5Descriptor?5at?5?$CI?$AA@ 000000018001a068     LIBCMT:undname.obj
 0002:00006088       ??_C@_0BD@LGICGFMM@?5Base?5Class?5Array?8?$AA@ 000000018001a088     LIBCMT:undname.obj
 0002:000060a0       ??_C@_0BN@MECKDCOJ@?5Class?5Hierarchy?5Descriptor?8?$AA@ 000000018001a0a0     LIBCMT:undname.obj
 0002:000060c0       ??_C@_0BK@CFCOFLF@?5Complete?5Object?5Locator?8?$AA@ 000000018001a0c0     LIBCMT:undname.obj
 0002:000060e0       ??_C@_1BA@BALFACEM@?$AAC?$AAO?$AAN?$AAO?$AAU?$AAT?$AA$?$AA?$AA@ 000000018001a0e0     LIBCMT:initcon.obj
 0002:000060f0       ??_C@_06PGGFOGJG@1?$CDSNAN?$AA@ 000000018001a0f0     LIBCMT:x10fout.obj
 0002:000060f8       ??_C@_05PHHOCPM@1?$CDIND?$AA@ 000000018001a0f8     LIBCMT:x10fout.obj
 0002:00006100       ??_C@_05DNEBIAHO@1?$CDINF?$AA@ 000000018001a100     LIBCMT:x10fout.obj
 0002:00006108       ??_C@_06IMKFLFPG@1?$CDQNAN?$AA@ 000000018001a108     LIBCMT:x10fout.obj
 0002:00006ab0       ??_C@_0BC@CIJDGCDI@permission?5denied?$AA@ 000000018001aab0     libcpmt:syserror.obj
 0002:00006ac8       ??_C@_0M@MIDIAGJP@file?5exists?$AA@ 000000018001aac8     libcpmt:syserror.obj
 0002:00006ad8       ??_C@_0P@FDINDDOK@no?5such?5device?$AA@ 000000018001aad8     libcpmt:syserror.obj
 0002:00006ae8       ??_C@_0BC@EJHOMAAK@filename?5too?5long?$AA@ 000000018001aae8     libcpmt:syserror.obj
 0002:00006b00       ??_C@_0BI@NGCEHDD@device?5or?5resource?5busy?$AA@ 000000018001ab00     libcpmt:syserror.obj
 0002:00006b18       ??_C@_08GLNPIFBN@io?5error?$AA@ 000000018001ab18     libcpmt:syserror.obj
 0002:00006b28       ??_C@_0BE@JIDOCPHM@directory?5not?5empty?$AA@ 000000018001ab28     libcpmt:syserror.obj
 0002:00006b40       ??_C@_0BB@FCMFBGOM@invalid?5argument?$AA@ 000000018001ab40     libcpmt:syserror.obj
 0002:00006b58       ??_C@_0BD@IJDJKDEA@no?5space?5on?5device?$AA@ 000000018001ab58     libcpmt:syserror.obj
 0002:00006b70       ??_C@_0BK@NDOCBPGE@no?5such?5file?5or?5directory?$AA@ 000000018001ab70     libcpmt:syserror.obj
 0002:00006b90       ??_C@_0BH@KEFGLDAF@function?5not?5supported?$AA@ 000000018001ab90     libcpmt:syserror.obj
 0002:00006ba8       ??_C@_0BC@NJECKMKE@no?5lock?5available?$AA@ 000000018001aba8     libcpmt:syserror.obj
 0002:00006bc0       ??_C@_0BC@ENOOLCNF@not?5enough?5memory?$AA@ 000000018001abc0     libcpmt:syserror.obj
 0002:00006bd8       ??_C@_0BP@LKNGHENJ@resource?5unavailable?5try?5again?$AA@ 000000018001abd8     libcpmt:syserror.obj
 0002:00006bf8       ??_C@_0BC@PPHBOELF@cross?5device?5link?$AA@ 000000018001abf8     libcpmt:syserror.obj
 0002:00006c10       ??_C@_0BD@MOLBPMEA@operation?5canceled?$AA@ 000000018001ac10     libcpmt:syserror.obj
 0002:00006c28       ??_C@_0BE@GHAFMPAH@too?5many?5files?5open?$AA@ 000000018001ac28     libcpmt:syserror.obj
 0002:00006c40       ??_C@_0BC@FNODOBAE@permission_denied?$AA@ 000000018001ac40     libcpmt:syserror.obj
 0002:00006c58       ??_C@_0P@LNDJPBFK@address_in_use?$AA@ 000000018001ac58     libcpmt:syserror.obj
 0002:00006c68       ??_C@_0BG@IPMGOJF@address_not_available?$AA@ 000000018001ac68     libcpmt:syserror.obj
 0002:00006c80       ??_C@_0BN@LCBDHODA@address_family_not_supported?$AA@ 000000018001ac80     libcpmt:syserror.obj
 0002:00006ca0       ??_C@_0BP@FOJJHMCC@connection_already_in_progress?$AA@ 000000018001aca0     libcpmt:syserror.obj
 0002:00006cc0       ??_C@_0BE@DLHHIBGN@bad_file_descriptor?$AA@ 000000018001acc0     libcpmt:syserror.obj
 0002:00006cd8       ??_C@_0BD@OJMJDIGI@connection_aborted?$AA@ 000000018001acd8     libcpmt:syserror.obj
 0002:00006cf0       ??_C@_0BD@NGKCIFEP@connection_refused?$AA@ 000000018001acf0     libcpmt:syserror.obj
 0002:00006d08       ??_C@_0BB@JOANDNCK@connection_reset?$AA@ 000000018001ad08     libcpmt:syserror.obj
 0002:00006d20       ??_C@_0BN@JLJNLKLK@destination_address_required?$AA@ 000000018001ad20     libcpmt:syserror.obj
 0002:00006d40       ??_C@_0M@IJGMGFGP@bad_address?$AA@ 000000018001ad40     libcpmt:syserror.obj
 0002:00006d50       ??_C@_0BB@KKNHPPIN@host_unreachable?$AA@ 000000018001ad50     libcpmt:syserror.obj
 0002:00006d68       ??_C@_0BG@DJGBJIIK@operation_in_progress?$AA@ 000000018001ad68     libcpmt:syserror.obj
 0002:00006d80       ??_C@_0M@EGEKIIMP@interrupted?$AA@ 000000018001ad80     libcpmt:syserror.obj
 0002:00006d90       ??_C@_0BB@FFIHMIPJ@invalid_argument?$AA@ 000000018001ad90     libcpmt:syserror.obj
 0002:00006da8       ??_C@_0BC@FIFLCHLO@already_connected?$AA@ 000000018001ada8     libcpmt:syserror.obj
 0002:00006dc0       ??_C@_0BE@GJJJJDDA@too_many_files_open?$AA@ 000000018001adc0     libcpmt:syserror.obj
 0002:00006dd8       ??_C@_0N@HPMLKHPL@message_size?$AA@ 000000018001add8     libcpmt:syserror.obj
 0002:00006de8       ??_C@_0BC@LEEIKBAL@filename_too_long?$AA@ 000000018001ade8     libcpmt:syserror.obj
 0002:00006e00       ??_C@_0N@FCPALPJK@network_down?$AA@ 000000018001ae00     libcpmt:syserror.obj
 0002:00006e10       ??_C@_0O@EHNDLHIG@network_reset?$AA@ 000000018001ae10     libcpmt:syserror.obj
 0002:00006e20       ??_C@_0BE@JFNJIDNF@network_unreachable?$AA@ 000000018001ae20     libcpmt:syserror.obj
 0002:00006e38       ??_C@_0BA@FDIJKJCL@no_buffer_space?$AA@ 000000018001ae38     libcpmt:syserror.obj
 0002:00006e48       ??_C@_0BD@JHIHCGKP@no_protocol_option?$AA@ 000000018001ae48     libcpmt:syserror.obj
 0002:00006e60       ??_C@_0O@GBCLHHD@not_connected?$AA@ 000000018001ae60     libcpmt:syserror.obj
 0002:00006e70       ??_C@_0N@IMHKKLEM@not_a_socket?$AA@ 000000018001ae70     libcpmt:syserror.obj
 0002:00006e80       ??_C@_0BI@ICEIDKLJ@operation_not_supported?$AA@ 000000018001ae80     libcpmt:syserror.obj
 0002:00006e98       ??_C@_0BH@KAPBAIJF@protocol_not_supported?$AA@ 000000018001ae98     libcpmt:syserror.obj
 0002:00006eb0       ??_C@_0BE@GAOJJFPC@wrong_protocol_type?$AA@ 000000018001aeb0     libcpmt:syserror.obj
 0002:00006ec8       ??_C@_09NCHNLHPG@timed_out?$AA@ 000000018001aec8     libcpmt:syserror.obj
 0002:00006ed8       ??_C@_0BG@GDGHKFDH@operation_would_block?$AA@ 000000018001aed8     libcpmt:syserror.obj
 0002:00006ef0       ??_C@_0BN@LKKBCCDB@address?5family?5not?5supported?$AA@ 000000018001aef0     libcpmt:syserror.obj
 0002:00006f10       ??_C@_0P@LDMLAFHI@address?5in?5use?$AA@ 000000018001af10     libcpmt:syserror.obj
 0002:00006f20       ??_C@_0BG@DHPCNBJB@address?5not?5available?$AA@ 000000018001af20     libcpmt:syserror.obj
 0002:00006f38       ??_C@_0BC@DFIBIBIL@already?5connected?$AA@ 000000018001af38     libcpmt:syserror.obj
 0002:00006f50       ??_C@_0BH@CAKOHOMI@argument?5list?5too?5long?$AA@ 000000018001af50     libcpmt:syserror.obj
 0002:00006f68       ??_C@_0BH@CGIMPKIM@argument?5out?5of?5domain?$AA@ 000000018001af68     libcpmt:syserror.obj
 0002:00006f80       ??_C@_0M@KGHGGJGL@bad?5address?$AA@ 000000018001af80     libcpmt:syserror.obj
 0002:00006f90       ??_C@_0BE@MPJPGCEO@bad?5file?5descriptor?$AA@ 000000018001af90     libcpmt:syserror.obj
 0002:00006fa8       ??_C@_0M@PMMIEFCP@bad?5message?$AA@ 000000018001afa8     libcpmt:syserror.obj
 0002:00006fb8       ??_C@_0M@KPHOFDBE@broken?5pipe?$AA@ 000000018001afb8     libcpmt:syserror.obj
 0002:00006fc8       ??_C@_0BD@MGNDDEGM@connection?5aborted?$AA@ 000000018001afc8     libcpmt:syserror.obj
 0002:00006fe0       ??_C@_0BP@KAIHPOGN@connection?5already?5in?5progress?$AA@ 000000018001afe0     libcpmt:syserror.obj
 0002:00007000       ??_C@_0BD@PJLIIJEL@connection?5refused?$AA@ 000000018001b000     libcpmt:syserror.obj
 0002:00007018       ??_C@_0BB@IECNJNOI@connection?5reset?$AA@ 000000018001b018     libcpmt:syserror.obj
 0002:00007030       ??_C@_0BN@KDMIFEIP@destination?5address?5required?$AA@ 000000018001b030     libcpmt:syserror.obj
 0002:00007050       ??_C@_0BI@BNCLIGPB@executable?5format?5error?$AA@ 000000018001b050     libcpmt:syserror.obj
 0002:00007068       ??_C@_0P@DNAJLBJK@file?5too?5large?$AA@ 000000018001b068     libcpmt:syserror.obj
 0002:00007078       ??_C@_0BB@DHFDFGDM@host?5unreachable?$AA@ 000000018001b078     libcpmt:syserror.obj
 0002:00007090       ??_C@_0BD@JPHBMONG@identifier?5removed?$AA@ 000000018001b090     libcpmt:syserror.obj
 0002:000070a8       ??_C@_0BG@CDNPAGJK@illegal?5byte?5sequence?$AA@ 000000018001b0a8     libcpmt:syserror.obj
 0002:000070c0       ??_C@_0CD@BNPLBMNA@inappropriate?5io?5control?5operati@ 000000018001b0c0     libcpmt:syserror.obj
 0002:000070e8       ??_C@_0N@OHAFKDEK@invalid?5seek?$AA@ 000000018001b0e8     libcpmt:syserror.obj
 0002:000070f8       ??_C@_0P@FLLDBIDK@is?5a?5directory?$AA@ 000000018001b0f8     libcpmt:syserror.obj
 0002:00007108       ??_C@_0N@IFLPBIOP@message?5size?$AA@ 000000018001b108     libcpmt:syserror.obj
 0002:00007118       ??_C@_0N@KIIEAAIO@network?5down?$AA@ 000000018001b118     libcpmt:syserror.obj
 0002:00007128       ??_C@_0O@FNPDBHEE@network?5reset?$AA@ 000000018001b128     libcpmt:syserror.obj
 0002:00007138       ??_C@_0BE@IFNCKGE@network?5unreachable?$AA@ 000000018001b138     libcpmt:syserror.obj
 0002:00007150       ??_C@_0BA@PFFCAOFK@no?5buffer?5space?$AA@ 000000018001b150     libcpmt:syserror.obj
 0002:00007160       ??_C@_0BB@IEPBLJHK@no?5child?5process?$AA@ 000000018001b160     libcpmt:syserror.obj
 0002:00007178       ??_C@_07PLECNNKG@no?5link?$AA@ 000000018001b178     libcpmt:syserror.obj
 0002:00007180       ??_C@_0BF@PBGGPKKE@no?5message?5available?$AA@ 000000018001b180     libcpmt:syserror.obj
 0002:00007198       ??_C@_0L@EDOLMPAK@no?5message?$AA@ 000000018001b198     libcpmt:syserror.obj
 0002:000071a8       ??_C@_0BD@EAMBFIDF@no?5protocol?5option?$AA@ 000000018001b1a8     libcpmt:syserror.obj
 0002:000071c0       ??_C@_0BE@MKFDAFMP@no?5stream?5resources?$AA@ 000000018001b1c0     libcpmt:syserror.obj
 0002:000071d8       ??_C@_0BK@IMCPHCBI@no?5such?5device?5or?5address?$AA@ 000000018001b1d8     libcpmt:syserror.obj
 0002:000071f8       ??_C@_0BA@ENLPPKBN@no?5such?5process?$AA@ 000000018001b1f8     libcpmt:syserror.obj
 0002:00007208       ??_C@_0BA@DOCPFFJG@not?5a?5directory?$AA@ 000000018001b208     libcpmt:syserror.obj
 0002:00007218       ??_C@_0N@POEIPGGF@not?5a?5socket?$AA@ 000000018001b218     libcpmt:syserror.obj
 0002:00007228       ??_C@_0N@LGAPMMPI@not?5a?5stream?$AA@ 000000018001b228     libcpmt:syserror.obj
 0002:00007238       ??_C@_0O@GLMIBBEG@not?5connected?$AA@ 000000018001b238     libcpmt:syserror.obj
 0002:00007248       ??_C@_0O@NHEDABJP@not?5supported?$AA@ 000000018001b248     libcpmt:syserror.obj
 0002:00007258       ??_C@_0BG@KDKHOPCO@operation?5in?5progress?$AA@ 000000018001b258     libcpmt:syserror.obj
 0002:00007270       ??_C@_0BI@OHIEJAAB@operation?5not?5permitted?$AA@ 000000018001b270     libcpmt:syserror.obj
 0002:00007288       ??_C@_0BI@LNEGIFLN@operation?5not?5supported?$AA@ 000000018001b288     libcpmt:syserror.obj
 0002:000072a0       ??_C@_0BG@OEMDKMEE@operation?5would?5block?$AA@ 000000018001b2a0     libcpmt:syserror.obj
 0002:000072b8       ??_C@_0L@BLPOFLNJ@owner?5dead?$AA@ 000000018001b2b8     libcpmt:syserror.obj
 0002:000072c8       ??_C@_0P@FNPOCJBE@protocol?5error?$AA@ 000000018001b2c8     libcpmt:syserror.obj
 0002:000072d8       ??_C@_0BH@JPPPLHJB@protocol?5not?5supported?$AA@ 000000018001b2d8     libcpmt:syserror.obj
 0002:000072f0       ??_C@_0BG@EICBIHDP@read?5only?5file?5system?$AA@ 000000018001b2f0     libcpmt:syserror.obj
 0002:00007308       ??_C@_0BO@BJBOMOEJ@resource?5deadlock?5would?5occur?$AA@ 000000018001b308     libcpmt:syserror.obj
 0002:00007328       ??_C@_0BE@GOIPJJHG@result?5out?5of?5range?$AA@ 000000018001b328     libcpmt:syserror.obj
 0002:00007340       ??_C@_0BG@MPLKFPAE@state?5not?5recoverable?$AA@ 000000018001b340     libcpmt:syserror.obj
 0002:00007358       ??_C@_0P@DIIFGFCG@stream?5timeout?$AA@ 000000018001b358     libcpmt:syserror.obj
 0002:00007368       ??_C@_0P@IPFDMIFL@text?5file?5busy?$AA@ 000000018001b368     libcpmt:syserror.obj
 0002:00007378       ??_C@_09KJPPMAOI@timed?5out?$AA@ 000000018001b378     libcpmt:syserror.obj
 0002:00007388       ??_C@_0BO@HACHBEKI@too?5many?5files?5open?5in?5system?$AA@ 000000018001b388     libcpmt:syserror.obj
 0002:000073a8       ??_C@_0P@HCOMKFCC@too?5many?5links?$AA@ 000000018001b3a8     libcpmt:syserror.obj
 0002:000073b8       ??_C@_0BO@EFGOJEF@too?5many?5symbolic?5link?5levels?$AA@ 000000018001b3b8     libcpmt:syserror.obj
 0002:000073d8       ??_C@_0BA@KGKGOOJA@value?5too?5large?$AA@ 000000018001b3d8     libcpmt:syserror.obj
 0002:000073e8       ??_C@_0BE@MIEJDDNH@wrong?5protocol?5type?$AA@ 000000018001b3e8     libcpmt:syserror.obj
 0002:00007408       ??_7logic_error@std@@6B@   000000018001b408     libcpmt:xthrow.obj
 0002:00007420       ??_7length_error@std@@6B@  000000018001b420     libcpmt:xthrow.obj
 0002:00007438       ??_7out_of_range@std@@6B@  000000018001b438     libcpmt:xthrow.obj
 0002:00007448       _pDestructExceptionObject  000000018001b448     LIBCMT:frame.obj
 0002:00008498       ??_C@_01JLIPDDHJ@?3?$AA@   000000018001c498     bcrypt.obj
 0002:0000849c       ??_C@_06DBKFHKEO@?$CF2?42u$?$AA@ 000000018001c49c     bcrypt.obj
 0002:000084a8       ??_C@_0BJ@POGCKMIM@OrpheanBeholderScryDoubt?$AA@ 000000018001c4a8     bcrypt.obj
 0002:000085a8       ??_C@_0BA@JFNIOLAK@string?5too?5long?$AA@ 000000018001c5a8     bcrypt_node.obj
 0002:000085c0       ??_C@_1PA@JPPLNAFC@?$AAC?$AA?3?$AA?2?$AAU?$AAs?$AAe?$AAr?$AAs?$AA?2?$AAt?$AAo?$AAm?$AAm?$AAy?$AA?2?$AAG?$AAo?$AAo?$AAg?$AAl?$AAe?$AA?5?$AAD?$AAr?$AAi?$AAv?$AAe?$AA?2?$AAG?$AAi?$AAt?$AAH@ 000000018001c5c0     bcrypt_node.obj
 0002:000086b0       ??_C@_1BO@OPFMAOCA@?$AAl?$AAe?$AAn?$AA?5?$AA?$DM?$AA?$DN?$AA?5?$AAI?$AAN?$AAT?$AA_?$AAM?$AAA?$AAX?$AA?$AA@ 000000018001c6b0     bcrypt_node.obj
 0002:000086d0       ??_C@_1BE@CKDJNAPC@?$AAs?$AAt?$AAr?$AA_?$AA?5?$AA?$CB?$AA?$DN?$AA?5?$AA0?$AA?$AA@ 000000018001c6d0     bcrypt_node.obj
 0002:000086e8       ??_C@_0BF@GAHHGPJD@3?5arguments?5expected?$AA@ 000000018001c6e8     bcrypt_node.obj
 0002:00008700       ??_C@_0CJ@NIBOBOAF@Second?5argument?5must?5be?5a?516?5byt@ 000000018001c700     bcrypt_node.obj
 0002:00008730       ??_C@_0BF@PPKNOMAN@2?5arguments?5expected?$AA@ 000000018001c730     bcrypt_node.obj
 0002:00008750       ??_C@_0EL@CMNNFDGM@Invalid?5salt?4?5Salt?5must?5be?5in?5th@ 000000018001c750     bcrypt_node.obj
 0002:000087a0       ??_C@_0BE@EAONHFGE@1?5argument?5expected?$AA@ 000000018001c7a0     bcrypt_node.obj
 0002:000087b8       ??_C@_0BG@DLBGHIFJ@invalid?5hash?5provided?$AA@ 000000018001c7b8     bcrypt_node.obj
 0002:000087d0       ??_C@_0O@GOKMKHLN@gen_salt_sync?$AA@ 000000018001c7d0     bcrypt_node.obj
 0002:000087e0       ??_C@_0N@KIMNMLPJ@encrypt_sync?$AA@ 000000018001c7e0     bcrypt_node.obj
 0002:000087f0       ??_C@_0N@FBJKNDBO@compare_sync?$AA@ 000000018001c7f0     bcrypt_node.obj
 0002:00008800       ??_C@_0L@NIECKLOE@get_rounds?$AA@ 000000018001c800     bcrypt_node.obj
 0002:00008810       ??_C@_08KINIKALG@gen_salt?$AA@ 000000018001c810     bcrypt_node.obj
 0002:00008820       ??_C@_07NNLIEMBO@encrypt?$AA@ 000000018001c820     bcrypt_node.obj
 0002:00008828       ??_C@_07DIJKPEDD@compare?$AA@ 000000018001c828     bcrypt_node.obj
 0002:00008830       ??_C@_0BG@OFHEALOG@?4?4?2src?2bcrypt_node?4cc?$AA@ 000000018001c830     bcrypt_node.obj
 0002:00008848       ??_C@_0L@GMPPMJKG@bcrypt_lib?$AA@ 000000018001c848     bcrypt_node.obj
 0002:00008858       ??_C@_0BI@CFPLBAOH@invalid?5string?5position?$AA@ 000000018001c858     bcrypt_node.obj
 0002:00008870       ??_7EncryptAsyncWorker@?A0x134cc3bc@@6B@ 000000018001c870     bcrypt_node.obj
 0002:000088a0       ??_7AsyncWorker@Nan@@6B@   000000018001c8a0     bcrypt_node.obj
 0002:000088d0       ??_7CompareAsyncWorker@?A0x134cc3bc@@6B@ 000000018001c8d0     bcrypt_node.obj
 0002:00008900       ??_7SaltAsyncWorker@?A0x134cc3bc@@6B@ 000000018001c900     bcrypt_node.obj
 0002:00008930       ??_C@_08HCOMDCCD@iojs?4exe?$AA@ 000000018001c930     win_delay_load_hook.obj
 0002:00008940       ??_C@_08JDDNMFDB@node?4exe?$AA@ 000000018001c940     win_delay_load_hook.obj
 0002:00008950       _load_config_used          000000018001c950     LIBCMT:loadcfg.obj
 0002:00008a70       ??_R1A@?0A@EA@exception@std@@8 000000018001ca70     LIBCMT:new.obj
 0002:00008a98       ??_R3exception@std@@8      000000018001ca98     LIBCMT:new.obj
 0002:00008ab0       ??_R2exception@std@@8      000000018001cab0     LIBCMT:new.obj
 0002:00008ac0       ??_R4bad_alloc@std@@6B@    000000018001cac0     LIBCMT:new.obj
 0002:00008ae8       ??_R3bad_alloc@std@@8      000000018001cae8     LIBCMT:new.obj
 0002:00008b00       ??_R2bad_alloc@std@@8      000000018001cb00     LIBCMT:new.obj
 0002:00008b18       ??_R1A@?0A@EA@bad_alloc@std@@8 000000018001cb18     LIBCMT:new.obj
 0002:00008b40       ??_R4exception@std@@6B@    000000018001cb40     LIBCMT:stdexcpt.obj
 0002:00008b68       ??_R4type_info@@6B@        000000018001cb68     LIBCMT:typinfo.obj
 0002:00008b90       ??_R3type_info@@8          000000018001cb90     LIBCMT:typinfo.obj
 0002:00008ba8       ??_R2type_info@@8          000000018001cba8     LIBCMT:typinfo.obj
 0002:00008bb8       ??_R1A@?0A@EA@type_info@@8 000000018001cbb8     LIBCMT:typinfo.obj
 0002:00008be0       ??_R4logic_error@std@@6B@  000000018001cbe0     libcpmt:xthrow.obj
 0002:00008c08       ??_R3logic_error@std@@8    000000018001cc08     libcpmt:xthrow.obj
 0002:00008c20       ??_R2logic_error@std@@8    000000018001cc20     libcpmt:xthrow.obj
 0002:00008c38       ??_R1A@?0A@EA@logic_error@std@@8 000000018001cc38     libcpmt:xthrow.obj
 0002:00008c60       ??_R4length_error@std@@6B@ 000000018001cc60     libcpmt:xthrow.obj
 0002:00008c88       ??_R3length_error@std@@8   000000018001cc88     libcpmt:xthrow.obj
 0002:00008ca0       ??_R2length_error@std@@8   000000018001cca0     libcpmt:xthrow.obj
 0002:00008cc0       ??_R1A@?0A@EA@length_error@std@@8 000000018001ccc0     libcpmt:xthrow.obj
 0002:00008ce8       ??_R4out_of_range@std@@6B@ 000000018001cce8     libcpmt:xthrow.obj
 0002:00008d10       ??_R3out_of_range@std@@8   000000018001cd10     libcpmt:xthrow.obj
 0002:00008d28       ??_R2out_of_range@std@@8   000000018001cd28     libcpmt:xthrow.obj
 0002:00008d48       ??_R1A@?0A@EA@out_of_range@std@@8 000000018001cd48     libcpmt:xthrow.obj
 0002:00008d70       __rtc_iaa                  000000018001cd70     LIBCMT:initsect.obj
 0002:00008d78       __rtc_izz                  000000018001cd78     LIBCMT:initsect.obj
 0002:00008d80       __rtc_taa                  000000018001cd80     LIBCMT:initsect.obj
 0002:00008d88       __rtc_tzz                  000000018001cd88     LIBCMT:initsect.obj
 0002:00009c30       _TI2?AVbad_alloc@std@@     000000018001dc30     LIBCMT:new.obj
 0002:00009c50       _CTA2?AVbad_alloc@std@@    000000018001dc50     LIBCMT:new.obj
 0002:00009c68       _CT??_R0?AVbad_alloc@std@@@8??0bad_alloc@std@@QEAA@AEBV01@@Z24 000000018001dc68     LIBCMT:new.obj
 0002:00009c90       _CT??_R0?AVexception@std@@@8??0exception@std@@QEAA@AEBV01@@Z24 000000018001dc90     LIBCMT:new.obj
 0002:00009cb8       _CT??_R0?AVlogic_error@std@@@8??0logic_error@std@@QEAA@AEBV01@@Z24 000000018001dcb8     libcpmt:xthrow.obj
 0002:00009ce0       _TI3?AVlength_error@std@@  000000018001dce0     libcpmt:xthrow.obj
 0002:00009d00       _CTA3?AVlength_error@std@@ 000000018001dd00     libcpmt:xthrow.obj
 0002:00009d20       _CT??_R0?AVlength_error@std@@@8??0length_error@std@@QEAA@AEBV01@@Z24 000000018001dd20     libcpmt:xthrow.obj
 0002:00009d48       _TI3?AVout_of_range@std@@  000000018001dd48     libcpmt:xthrow.obj
 0002:00009d68       _CTA3?AVout_of_range@std@@ 000000018001dd68     libcpmt:xthrow.obj
 0002:00009d88       _CT??_R0?AVout_of_range@std@@@8??0out_of_range@std@@QEAA@AEBV01@@Z24 000000018001dd88     libcpmt:xthrow.obj
 0002:00009dac       __DELAY_IMPORT_DESCRIPTOR_node_exe 000000018001ddac     node:node.exe
 0002:00009dcc       __NULL_DELAY_IMPORT_DESCRIPTOR 000000018001ddcc     node:node.exe
 0002:00009f48       \177node_NULL_THUNK_DATA_DLN 000000018001df48     node:node.exe
 0002:0000aac8       \177node_NULL_THUNK_DATA_DLB 000000018001eac8     node:node.exe
 0002:0000ac78       __IMPORT_DESCRIPTOR_KERNEL32 000000018001ec78     kernel32:KERNEL32.dll
 0002:0000ac8c       __NULL_IMPORT_DESCRIPTOR   000000018001ec8c     kernel32:KERNEL32.dll
 0003:00000068       __security_cookie          0000000180020068     LIBCMT:gs_cookie.obj
 0003:00000070       __security_cookie_complement 0000000180020070     LIBCMT:gs_cookie.obj
 0003:00000078       __nullstring               0000000180020078     LIBCMT:output.obj
 0003:00000080       __wnullstring              0000000180020080     LIBCMT:output.obj
 0003:00000200       __isa_available            0000000180020200     LIBCMT:cpu_disp.obj
 0003:00000204       __isa_enabled              0000000180020204     LIBCMT:cpu_disp.obj
 0003:00000208       __abort_behavior           0000000180020208     LIBCMT:abort.obj
 0003:00000210       _iob                       0000000180020210     LIBCMT:_file.obj
 0003:000005d4       _fltused                   00000001800205d4     LIBCMT:fpinit.obj
 0003:000005d8       _ldused                    00000001800205d8     LIBCMT:fpinit.obj
 0003:000005e0       _mbctype                   00000001800205e0     LIBCMT:mbctype.obj
 0003:000006f0       _mbcasemap                 00000001800206f0     LIBCMT:mbctype.obj
 0003:000007f0       __initialmbcinfo           00000001800207f0     LIBCMT:mbctype.obj
 0003:00000b10       __ptmbcinfo                0000000180020b10     LIBCMT:mbctype.obj
 0003:00000b18       __flsindex                 0000000180020b18     LIBCMT:tidtable.obj
 0003:00000b1c       __mb_cur_max               0000000180020b1c     LIBCMT:nlsdata.obj
 0003:00000b20       __wclocalestr              0000000180020b20     LIBCMT:nlsdata.obj
 0003:00000b30       __lc_time_c                0000000180020b30     LIBCMT:nlsdata.obj
 0003:00000df0       __ptlocinfo                0000000180020df0     LIBCMT:nlsdata.obj
 0003:00000e00       __initiallocinfo           0000000180020e00     LIBCMT:nlsdata.obj
 0003:00000f58       __initiallocalestructinfo  0000000180020f58     LIBCMT:nlsdata.obj
 0003:00000f68       __globallocalestatus       0000000180020f68     LIBCMT:glstatus.obj
 0003:00000f80       __badioinfo                0000000180020f80     LIBCMT:ioinit.obj
 0003:00000fe0       _cfltcvt_tab               0000000180020fe0     LIBCMT:cmiscdat.obj
 0003:00001440       _matherr_flag              0000000180021440     LIBCMT:matherr.obj
 0003:00001450       __lconv_c                  0000000180021450     LIBCMT:lconv.obj
 0003:000014e8       __lconv_static_decimal     00000001800214e8     LIBCMT:lconv.obj
 0003:000014ec       __lconv_static_W_decimal   00000001800214ec     LIBCMT:lconv.obj
 0003:000014f0       __lconv                    00000001800214f0     LIBCMT:lconv.obj
 0003:000014f8       _pctype                    00000001800214f8     LIBCMT:ctype.obj
 0003:00001500       _pwctype                   0000000180021500     LIBCMT:ctype.obj
 0003:00001510       _HUGE                      0000000180021510     LIBCMT:huge.obj
 0003:00001550       _d_inf                     0000000180021550     LIBCMT:util.obj
 0003:00001558       _d_ind                     0000000180021558     LIBCMT:util.obj
 0003:00001560       _d_max                     0000000180021560     LIBCMT:util.obj
 0003:00001568       _d_min                     0000000180021568     LIBCMT:util.obj
 0003:00001570       _d_mzero                   0000000180021570     LIBCMT:util.obj
 0003:00001580       _pow10pos                  0000000180021580     LIBCMT:constpow.obj
 0003:000016e0       _pow10neg                  00000001800216e0     LIBCMT:constpow.obj
 0003:00001840       _confh                     0000000180021840     LIBCMT:initcon.obj
 0003:00001890       __pfnDliNotifyHook2        0000000180021890     win_delay_load_hook.obj
 0003:00001898       ??_R0?AVbad_alloc@std@@@8  0000000180021898     LIBCMT:new.obj
 0003:000018c0       ??_R0?AVexception@std@@@8  00000001800218c0     LIBCMT:new.obj
 0003:000018e8       ??_R0?AVtype_info@@@8      00000001800218e8     LIBCMT:typinfo.obj
 0003:00001908       ??_R0?AVlogic_error@std@@@8 0000000180021908     libcpmt:xthrow.obj
 0003:00001930       ??_R0?AVlength_error@std@@@8 0000000180021930     libcpmt:xthrow.obj
 0003:00001958       ??_R0?AVout_of_range@std@@@8 0000000180021958     libcpmt:xthrow.obj
 0003:00001980       __imp_?Encode@node@@YA?AV?$Local@VValue@v8@@@v8@@PEAVIsolate@3@PEBD_KW4encoding@1@@Z 0000000180021980     node:node.exe
 0003:00001988       __imp_?Length@Buffer@node@@YA_KV?$Local@VObject@v8@@@v8@@@Z 0000000180021988     node:node.exe
 0003:00001990       __imp_?Data@Buffer@node@@YAPEADV?$Local@VObject@v8@@@v8@@@Z 0000000180021990     node:node.exe
 0003:00001998       __imp_?HasInstance@Buffer@node@@YA_NV?$Local@VValue@v8@@@v8@@@Z 0000000180021998     node:node.exe
 0003:000019a0       __imp_node_module_register 00000001800219a0     node:node.exe
 0003:000019a8       __imp_?MakeCallback@node@@YA?AV?$Local@VValue@v8@@@v8@@PEAVIsolate@3@V?$Local@VObject@v8@@@3@V?$Local@VFunction@v8@@@3@HPEAV23@@Z 00000001800219a8     node:node.exe
 0003:000019b0       __imp_uv_default_loop      00000001800219b0     node:node.exe
 0003:000019b8       __imp_?Global@Context@v8@@QEAA?AV?$Local@VObject@v8@@@2@XZ 00000001800219b8     node:node.exe
 0003:000019c0       __imp_?ToLocalEmpty@V8@v8@@CAXXZ 00000001800219c0     node:node.exe
 0003:000019c8       __imp_?DisposeGlobal@V8@v8@@CAXPEAPEAVObject@internal@2@@Z 00000001800219c8     node:node.exe
 0003:000019d0       __imp_?GlobalizeReference@V8@v8@@CAPEAPEAVObject@internal@2@PEAVIsolate@42@PEAPEAV342@@Z 00000001800219d0     node:node.exe
 0003:000019d8       __imp_?Escape@EscapableHandleScope@v8@@AEAAPEAPEAVObject@internal@2@PEAPEAV342@@Z 00000001800219d8     node:node.exe
 0003:000019e0       __imp_??0EscapableHandleScope@v8@@QEAA@PEAVIsolate@1@@Z 00000001800219e0     node:node.exe
 0003:000019e8       __imp_?Int32Value@Value@v8@@QEBA?AV?$Maybe@H@2@V?$Local@VContext@v8@@@2@@Z 00000001800219e8     node:node.exe
 0003:000019f0       __imp_?ToUint32@Value@v8@@QEBA?AV?$MaybeLocal@VUint32@v8@@@2@V?$Local@VContext@v8@@@2@@Z 00000001800219f0     node:node.exe
 0003:000019f8       __imp_?GetFunction@FunctionTemplate@v8@@QEAA?AV?$MaybeLocal@VFunction@v8@@@2@V?$Local@VContext@v8@@@2@@Z 00000001800219f8     node:node.exe
 0003:00001a00       __imp_?New@FunctionTemplate@v8@@SA?AV?$Local@VFunctionTemplate@v8@@@2@PEAVIsolate@2@P6AXAEBV?$FunctionCallbackInfo@VValue@v8@@@2@@ZV?$Local@VValue@v8@@@2@V?$Local@VSignature@v8@@@2@H@Z 0000000180021a00     node:node.exe
 0003:00001a08       __imp_?Error@Exception@v8@@SA?AV?$Local@VValue@v8@@@2@V?$Local@VString@v8@@@2@@Z 0000000180021a08     node:node.exe
 0003:00001a10       __imp_?TypeError@Exception@v8@@SA?AV?$Local@VValue@v8@@@2@V?$Local@VString@v8@@@2@@Z 0000000180021a10     node:node.exe
 0003:00001a18       __imp_?NewFromUtf8@String@v8@@SA?AV?$MaybeLocal@VString@v8@@@2@PEAVIsolate@2@PEBDW4NewStringType@2@H@Z 0000000180021a18     node:node.exe
 0003:00001a20       __imp_?WriteUtf8@String@v8@@QEBAHPEADHPEAHH@Z 0000000180021a20     node:node.exe
 0003:00001a28       __imp_?Length@String@v8@@QEBAHXZ 0000000180021a28     node:node.exe
 0003:00001a30       __imp_?CreateHandle@HandleScope@v8@@KAPEAPEAVObject@internal@2@PEAVIsolate@42@PEAV342@@Z 0000000180021a30     node:node.exe
 0003:00001a38       __imp_?CreateHandle@HandleScope@v8@@CAPEAPEAVObject@internal@2@PEAVHeapObject@42@PEAV342@@Z 0000000180021a38     node:node.exe
 0003:00001a40       __imp_??1HandleScope@v8@@QEAA@XZ 0000000180021a40     node:node.exe
 0003:00001a48       __imp_??0HandleScope@v8@@QEAA@PEAVIsolate@1@@Z 0000000180021a48     node:node.exe
 0003:00001a50       __imp_?SlowGetInternalField@Object@v8@@AEAA?AV?$Local@VValue@v8@@@2@H@Z 0000000180021a50     node:node.exe
 0003:00001a58       __imp_?New@Object@v8@@SA?AV?$Local@VObject@v8@@@2@PEAVIsolate@2@@Z 0000000180021a58     node:node.exe
 0003:00001a60       __imp_?SetInternalField@Object@v8@@QEAAXHV?$Local@VValue@v8@@@2@@Z 0000000180021a60     node:node.exe
 0003:00001a68       __imp_?Get@Object@v8@@QEAA?AV?$Local@VValue@v8@@@2@I@Z 0000000180021a68     node:node.exe
 0003:00001a70       __imp_?Set@Object@v8@@QEAA?AV?$Maybe@_N@2@V?$Local@VContext@v8@@@2@V?$Local@VValue@v8@@@2@1@Z 0000000180021a70     node:node.exe
 0003:00001a78       __imp_?Set@Object@v8@@QEAA?AV?$Maybe@_N@2@V?$Local@VContext@v8@@@2@IV?$Local@VValue@v8@@@2@@Z 0000000180021a78     node:node.exe
 0003:00001a80       __imp_?SetInternalFieldCount@ObjectTemplate@v8@@QEAAXH@Z 0000000180021a80     node:node.exe
 0003:00001a88       __imp_?NewInstance@ObjectTemplate@v8@@QEAA?AV?$MaybeLocal@VObject@v8@@@2@V?$Local@VContext@v8@@@2@@Z 0000000180021a88     node:node.exe
 0003:00001a90       __imp_?New@ObjectTemplate@v8@@SA?AV?$Local@VObjectTemplate@v8@@@2@PEAVIsolate@2@V?$Local@VFunctionTemplate@v8@@@2@@Z 0000000180021a90     node:node.exe
 0003:00001a98       __imp_?NewFromUnsigned@Integer@v8@@SA?AV?$Local@VInteger@v8@@@2@PEAVIsolate@2@I@Z 0000000180021a98     node:node.exe
 0003:00001aa0       __imp_?ThrowException@Isolate@v8@@QEAA?AV?$Local@VValue@v8@@@2@V32@@Z 0000000180021aa0     node:node.exe
 0003:00001aa8       __imp_?GetCurrentContext@Isolate@v8@@QEAA?AV?$Local@VContext@v8@@@2@XZ 0000000180021aa8     node:node.exe
 0003:00001ab0       __imp_?GetCurrent@Isolate@v8@@SAPEAV12@XZ 0000000180021ab0     node:node.exe
 0003:00001ab8       __imp_?Value@External@v8@@QEBAPEAXXZ 0000000180021ab8     node:node.exe
 0003:00001ac0       __imp_?New@External@v8@@SA?AV?$Local@VExternal@v8@@@2@PEAVIsolate@2@PEAX@Z 0000000180021ac0     node:node.exe
 0003:00001ac8       __imp_uv_queue_work        0000000180021ac8     node:node.exe
 0003:00001ad0       __imp_?ToString@Value@v8@@QEBA?AV?$Local@VString@v8@@@2@XZ 0000000180021ad0     node:node.exe
 0003:00001ad8       \177node_NULL_THUNK_DATA_DLA 0000000180021ad8     node:node.exe
 0003:00001ae0       __hmod__node_exe           0000000180021ae0     node:node.exe
 0003:00001af0       _aenvptr                   0000000180021af0     LIBCMT:dllcrt0.obj
 0003:00001af8       _wenvptr                   0000000180021af8     LIBCMT:dllcrt0.obj
 0003:00002078       __pInvalidArgHandler       0000000180022078     LIBCMT:invarg.obj
 0003:00002080       __favor                    0000000180022080     LIBCMT:cpu_disp.obj
 0003:00002088       _crtheap                   0000000180022088     LIBCMT:heapinit.obj
 0003:00002090       ?_pnhHeap@@3P6AH_K@ZEA     0000000180022090     LIBCMT:handler.obj
 0003:00002098       _C_Exit_Done               0000000180022098     LIBCMT:crt0dat.obj
 0003:0000209c       __argc                     000000018002209c     LIBCMT:crt0dat.obj
 0003:000020a0       __argv                     00000001800220a0     LIBCMT:crt0dat.obj
 0003:000020a8       __wargv                    00000001800220a8     LIBCMT:crt0dat.obj
 0003:000020b0       _environ                   00000001800220b0     LIBCMT:crt0dat.obj
 0003:000020b8       _wenviron                  00000001800220b8     LIBCMT:crt0dat.obj
 0003:000020c0       _pgmptr                    00000001800220c0     LIBCMT:crt0dat.obj
 0003:000020c8       _wpgmptr                   00000001800220c8     LIBCMT:crt0dat.obj
 0003:000020d0       _umaskval                  00000001800220d0     LIBCMT:crt0dat.obj
 0003:000020d4       _exitflag                  00000001800220d4     LIBCMT:crt0dat.obj
 0003:000020d8       _C_Termination_Done        00000001800220d8     LIBCMT:crt0dat.obj
 0003:000020e0       __winitenv                 00000001800220e0     LIBCMT:crt0dat.obj
 0003:000020e8       __initenv                  00000001800220e8     LIBCMT:crt0dat.obj
 0003:000020f0       __app_type                 00000001800220f0     LIBCMT:crt0msg.obj
 0003:00002728       _newmode                   0000000180022728     LIBCMT:_newmode.obj
 0003:0000272c       __error_mode               000000018002272c     LIBCMT:errmode.obj
 0003:00002730       _cflush                    0000000180022730     LIBCMT:_file.obj
 0003:00002788       _maxwait                   0000000180022788     LIBCMT:crtheap.obj
 0003:00002790       __pPurecall                0000000180022790     LIBCMT:inithelp.obj
 0003:00002798       __fastflag                 0000000180022798     LIBCMT:fpinit.obj
 0003:000027a0       __mbcodepage               00000001800227a0     LIBCMT:mbctype.obj
 0003:000027a4       __ismbcodepage             00000001800227a4     LIBCMT:mbctype.obj
 0003:000027a8       __mbulinfo                 00000001800227a8     LIBCMT:mbctype.obj
 0003:000027b8       __mblocalename             00000001800227b8     LIBCMT:mbctype.obj
 0003:000027c4       __locale_changed           00000001800227c4     LIBCMT:wsetloca.obj
 0003:000027d0       __pioinfo                  00000001800227d0     LIBCMT:ioinit.obj
 0003:00002d10       ?__pInconsistency@@3P6AXXZEA 0000000180022d10     LIBCMT:hooks.obj
 0003:00002d20       _stdbuf                    0000000180022d20     LIBCMT:_sftbuf.obj
 0003:00002d48       __lconv_static_null        0000000180022d48     LIBCMT:lconv.obj
 0003:00002d4c       __lconv_static_W_null      0000000180022d4c     LIBCMT:lconv.obj
 0003:00002d50       _outputformat              0000000180022d50     LIBCMT:outputformat.obj
 0003:00002d58       ?m_pGetParameter@UnDecorator@@0P6APEADJ@ZEA 0000000180022d58     LIBCMT:undname.obj
 0003:00002d60       ?pArgList@UnDecorator@@0PEAVReplicator@@EA 0000000180022d60     LIBCMT:undname.obj
 0003:00002d68       ?pZNameList@UnDecorator@@0PEAVReplicator@@EA 0000000180022d68     LIBCMT:undname.obj
 0003:00002d70       ?pTemplateArgList@UnDecorator@@0PEAVReplicator@@EA 0000000180022d70     LIBCMT:undname.obj
 0003:00002d78       ?gName@UnDecorator@@0PEBDEB 0000000180022d78     LIBCMT:undname.obj
 0003:00002d80       ?name@UnDecorator@@0PEBDEB 0000000180022d80     LIBCMT:undname.obj
 0003:00002d88       ?outputString@UnDecorator@@0PEADEA 0000000180022d88     LIBCMT:undname.obj
 0003:00002d90       ?maxStringLength@UnDecorator@@0HA 0000000180022d90     LIBCMT:undname.obj
 0003:00002d94       ?disableFlags@UnDecorator@@0KA 0000000180022d94     LIBCMT:undname.obj
 0003:00002d98       ?fExplicitTemplateParams@UnDecorator@@0_NA 0000000180022d98     LIBCMT:undname.obj
 0003:00002d99       ?fGetTemplateArgumentList@UnDecorator@@0_NA 0000000180022d99     LIBCMT:undname.obj
 0003:00002dd0       __pfnDliFailureHook2       0000000180022dd0     DelayImp:delayhk1.obj
 0003:00002dd8       ?g_OutOfMemoryExceptionCallback@@3P6APEAXXZEA 0000000180022dd8     LIBCMT:frame.obj
 0003:00002de0       ?id@?$num_put@_WV?$back_insert_iterator@V?$basic_string@_WU?$char_traits@_W@std@@V?$allocator@_W@2@@std@@@std@@@std@@2V0locale@2@A 0000000180022de0     bcrypt_node.obj
 0003:00002de8       ?_System_object@?$_Error_objects@H@std@@2V_System_error_category@2@A 0000000180022de8     bcrypt_node.obj
 0003:00002df0       ?id@?$numpunct@_W@std@@2V0locale@2@A 0000000180022df0     bcrypt_node.obj
 0003:00002df8       ?id@?$num_put@DV?$back_insert_iterator@V?$basic_string@DU?$char_traits@D@std@@V?$allocator@D@2@@std@@@std@@@std@@2V0locale@2@A 0000000180022df8     bcrypt_node.obj
 0003:00002e00       ?_Iostream_object@?$_Error_objects@H@std@@2V_Iostream_error_category@2@A 0000000180022e00     bcrypt_node.obj
 0003:00002e10       ?_Generic_object@?$_Error_objects@H@std@@2V_Generic_error_category@2@A 0000000180022e10     bcrypt_node.obj
 0003:00002e18       ?id@?$numpunct@D@std@@2V0locale@2@A 0000000180022e18     bcrypt_node.obj
 0003:00002e20       _debugger_hook_dummy       0000000180022e20     <common>
 0003:00002e40       encodedKERNEL32Functions   0000000180022e40     <common>
 0003:00002f48       _nhandle                   0000000180022f48     <common>
 0003:00002f50       __piob                     0000000180022f50     <common>
 0003:00002f58       _nstream                   0000000180022f58     <common>
 0003:00002f60       _bufin                     0000000180022f60     <common>
 0003:00003f60       __dyn_tls_init_callback    0000000180023f60     <common>
 0003:00003f68       __onexitend                0000000180023f68     <common>
 0003:00003f70       __onexitbegin              0000000180023f70     <common>
 0003:00003f78       __mbctype_initialized      0000000180023f78     <common>
 0003:00003f7c       __env_initialized          0000000180023f7c     <common>
 0003:00003f80       _acmdln                    0000000180023f80     <common>

 entry point at        0001:000059a4

 Static symbols

 0000:fffd9000       .debug$S                   0000000180000000     kernel32:KERNEL32.dll
 0000:fffd9000       .debug$S                   0000000180000000     kernel32:KERNEL32.dll
 0000:fffd9000       .debug$S                   0000000180000000     kernel32:KERNEL32.dll
 0000:fffd9000       .debug$S                   0000000180000000     kernel32:KERNEL32.dll
 0000:fffd9000       .debug$S                   0000000180000000     kernel32:KERNEL32.dll
 0000:fffd9000       .debug$S                   0000000180000000     kernel32:KERNEL32.dll
 0000:fffd9000       .debug$S                   0000000180000000     kernel32:KERNEL32.dll
 0000:fffd9000       .debug$S                   0000000180000000     kernel32:KERNEL32.dll
 0000:fffd9000       .debug$S                   0000000180000000     kernel32:KERNEL32.dll
 0000:fffd9000       .debug$S                   0000000180000000     kernel32:KERNEL32.dll
 0000:fffd9000       .debug$S                   0000000180000000     kernel32:KERNEL32.dll
 0000:fffd9000       .debug$S                   0000000180000000     kernel32:KERNEL32.dll
 0000:fffd9000       .debug$S                   0000000180000000     kernel32:KERNEL32.dll
 0000:fffd9000       .debug$S                   0000000180000000     kernel32:KERNEL32.dll
 0000:fffd9000       .debug$S                   0000000180000000     kernel32:KERNEL32.dll
 0000:fffd9000       .debug$S                   0000000180000000     kernel32:KERNEL32.dll
 0000:fffd9000       .debug$S                   0000000180000000     kernel32:KERNEL32.dll
 0000:fffd9000       .debug$S                   0000000180000000     kernel32:KERNEL32.dll
 0000:fffd9000       .debug$S                   0000000180000000     kernel32:KERNEL32.dll
 0000:fffd9000       .debug$S                   0000000180000000     kernel32:KERNEL32.dll
 0000:fffd9000       .debug$S                   0000000180000000     kernel32:KERNEL32.dll
 0000:fffd9000       .debug$S                   0000000180000000     kernel32:KERNEL32.dll
 0000:fffd9000       .debug$S                   0000000180000000     kernel32:KERNEL32.dll
 0000:fffd9000       .debug$S                   0000000180000000     kernel32:KERNEL32.dll
 0000:fffd9000       .debug$S                   0000000180000000     kernel32:KERNEL32.dll
 0000:fffd9000       .debug$S                   0000000180000000     kernel32:KERNEL32.dll
 0000:fffd9000       .debug$S                   0000000180000000     kernel32:KERNEL32.dll
 0000:fffd9000       .debug$S                   0000000180000000     kernel32:KERNEL32.dll
 0000:fffd9000       .debug$S                   0000000180000000     kernel32:KERNEL32.dll
 0000:fffd9000       .debug$S                   0000000180000000     kernel32:KERNEL32.dll
 0000:fffd9000       .debug$S                   0000000180000000     kernel32:KERNEL32.dll
 0000:fffd9000       .debug$S                   0000000180000000     kernel32:KERNEL32.dll
 0000:fffd9000       .debug$S                   0000000180000000     kernel32:KERNEL32.dll
 0000:fffd9000       .debug$S                   0000000180000000     kernel32:KERNEL32.dll
 0000:fffd9000       .debug$S                   0000000180000000     kernel32:KERNEL32.dll
 0000:fffd9000       .debug$S                   0000000180000000     kernel32:KERNEL32.dll
 0000:fffd9000       .debug$S                   0000000180000000     kernel32:KERNEL32.dll
 0000:fffd9000       .debug$S                   0000000180000000     kernel32:KERNEL32.dll
 0000:fffd9000       .debug$S                   0000000180000000     kernel32:KERNEL32.dll
 0000:fffd9000       .debug$S                   0000000180000000     kernel32:KERNEL32.dll
 0000:fffd9000       .debug$S                   0000000180000000     kernel32:KERNEL32.dll
 0000:fffd9000       .debug$S                   0000000180000000     kernel32:KERNEL32.dll
 0000:fffd9000       .debug$S                   0000000180000000     kernel32:KERNEL32.dll
 0000:fffd9000       .debug$S                   0000000180000000     kernel32:KERNEL32.dll
 0000:fffd9000       .debug$S                   0000000180000000     kernel32:KERNEL32.dll
 0000:fffd9000       .debug$S                   0000000180000000     kernel32:KERNEL32.dll
 0000:fffd9000       .debug$S                   0000000180000000     kernel32:KERNEL32.dll
 0000:fffd9000       .debug$S                   0000000180000000     kernel32:KERNEL32.dll
 0000:fffd9000       .debug$S                   0000000180000000     kernel32:KERNEL32.dll
 0000:fffd9000       .debug$S                   0000000180000000     kernel32:KERNEL32.dll
 0000:fffd9000       .debug$S                   0000000180000000     kernel32:KERNEL32.dll
 0000:fffd9000       .debug$S                   0000000180000000     kernel32:KERNEL32.dll
 0000:fffd9000       .debug$S                   0000000180000000     kernel32:KERNEL32.dll
 0000:fffd9000       .debug$S                   0000000180000000     kernel32:KERNEL32.dll
 0000:fffd9000       .debug$S                   0000000180000000     kernel32:KERNEL32.dll
 0000:fffd9000       .debug$S                   0000000180000000     kernel32:KERNEL32.dll
 0000:fffd9000       .debug$S                   0000000180000000     kernel32:KERNEL32.dll
 0000:fffd9000       .debug$S                   0000000180000000     kernel32:KERNEL32.dll
 0000:fffd9000       .debug$S                   0000000180000000     kernel32:KERNEL32.dll
 0000:fffd9000       .debug$S                   0000000180000000     kernel32:KERNEL32.dll
 0000:fffd9000       .debug$S                   0000000180000000     kernel32:KERNEL32.dll
 0000:fffd9000       .debug$S                   0000000180000000     kernel32:KERNEL32.dll
 0000:fffd9000       .debug$S                   0000000180000000     kernel32:KERNEL32.dll
 0000:fffd9000       .debug$S                   0000000180000000     kernel32:KERNEL32.dll
 0000:fffd9000       .debug$S                   0000000180000000     kernel32:KERNEL32.dll
 0000:fffd9000       .debug$S                   0000000180000000     kernel32:KERNEL32.dll
 0000:fffd9000       .debug$S                   0000000180000000     kernel32:KERNEL32.dll
 0000:fffd9000       .debug$S                   0000000180000000     kernel32:KERNEL32.dll
 0000:fffd9000       .debug$S                   0000000180000000     node:node.exe
 0000:fffd9000       .debug$S                   0000000180000000     node:node.exe
 0000:fffd9000       .debug$S                   0000000180000000     node:node.exe
 0000:fffd9000       .debug$S                   0000000180000000     node:node.exe
 0000:fffd9000       .debug$S                   0000000180000000     node:node.exe
 0000:fffd9000       .debug$S                   0000000180000000     node:node.exe
 0000:fffd9000       .debug$S                   0000000180000000     kernel32:KERNEL32.dll
 0000:fffd9000       .debug$S                   0000000180000000     node:node.exe
 0000:fffd9000       .debug$S                   0000000180000000     kernel32:KERNEL32.dll
 0000:fffd9000       .debug$S                   0000000180000000     node:node.exe
 0000:fffd9000       .debug$S                   0000000180000000     kernel32:KERNEL32.dll
 0000:fffd9000       .debug$S                   0000000180000000     node:node.exe
 0000:fffd9000       .debug$S                   0000000180000000     node:node.exe
 0000:fffd9000       .debug$S                   0000000180000000     node:node.exe
 0000:fffd9000       .debug$S                   0000000180000000     node:node.exe
 0000:fffd9000       .debug$S                   0000000180000000     node:node.exe
 0000:fffd9000       .debug$S                   0000000180000000     node:node.exe
 0000:fffd9000       .debug$S                   0000000180000000     node:node.exe
 0000:fffd9000       .debug$S                   0000000180000000     node:node.exe
 0000:fffd9000       .debug$S                   0000000180000000     node:node.exe
 0000:fffd9000       .debug$S                   0000000180000000     node:node.exe
 0000:fffd9000       .debug$S                   0000000180000000     node:node.exe
 0000:fffd9000       .debug$S                   0000000180000000     node:node.exe
 0000:fffd9000       .debug$S                   0000000180000000     node:node.exe
 0000:fffd9000       .debug$S                   0000000180000000     node:node.exe
 0000:fffd9000       .debug$S                   0000000180000000     node:node.exe
 0000:fffd9000       .debug$S                   0000000180000000     node:node.exe
 0000:fffd9000       .debug$S                   0000000180000000     node:node.exe
 0000:fffd9000       .debug$S                   0000000180000000     node:node.exe
 0000:fffd9000       .debug$S                   0000000180000000     node:node.exe
 0000:fffd9000       .debug$S                   0000000180000000     kernel32:KERNEL32.dll
 0000:fffd9000       .debug$S                   0000000180000000     node:node.exe
 0000:fffd9000       .debug$S                   0000000180000000     kernel32:KERNEL32.dll
 0000:fffd9000       .debug$S                   0000000180000000     node:node.exe
 0000:fffd9000       .debug$S                   0000000180000000     kernel32:KERNEL32.dll
 0000:fffd9000       .debug$S                   0000000180000000     node:node.exe
 0000:fffd9000       .debug$S                   0000000180000000     node:node.exe
 0000:fffd9000       .debug$S                   0000000180000000     node:node.exe
 0000:fffd9000       .debug$S                   0000000180000000     node:node.exe
 0000:fffd9000       .debug$S                   0000000180000000     node:node.exe
 0000:fffd9000       .debug$S                   0000000180000000     node:node.exe
 0000:fffd9000       .debug$S                   0000000180000000     node:node.exe
 0000:fffd9000       .debug$S                   0000000180000000     kernel32:KERNEL32.dll
 0000:fffd9000       .debug$S                   0000000180000000     node:node.exe
 0000:fffd9000       .debug$S                   0000000180000000     node:node.exe
 0000:fffd9000       .debug$S                   0000000180000000     node:node.exe
 0000:fffd9000       .debug$S                   0000000180000000     kernel32:KERNEL32.dll
 0000:fffd9000       .debug$S                   0000000180000000     node:node.exe
 0000:fffd9000       .debug$S                   0000000180000000     node:node.exe
 0000:fffd9000       .debug$S                   0000000180000000     node:node.exe
 0000:fffd9000       .debug$S                   0000000180000000     node:node.exe
 0000:fffd9000       .debug$S                   0000000180000000     node:node.exe
 0000:fffd9000       .debug$S                   0000000180000000     node:node.exe
 0000:fffd9000       .debug$S                   0000000180000000     node:node.exe
 0000:fffd9000       .debug$S                   0000000180000000     node:node.exe
 0000:fffd9000       .debug$S                   0000000180000000     node:node.exe
 0000:fffd9000       .debug$S                   0000000180000000     node:node.exe
 0000:fffd9000       .debug$S                   0000000180000000     node:node.exe
 0000:fffd9000       .debug$S                   0000000180000000     kernel32:KERNEL32.dll
 0000:fffd9000       .debug$S                   0000000180000000     kernel32:KERNEL32.dll
 0000:fffd9000       .debug$S                   0000000180000000     kernel32:KERNEL32.dll
 0000:fffd9000       .debug$S                   0000000180000000     kernel32:KERNEL32.dll
 0000:fffd9000       .debug$S                   0000000180000000     kernel32:KERNEL32.dll
 0000:fffd9000       .debug$S                   0000000180000000     kernel32:KERNEL32.dll
 0001:00000000       ??__Epiecewise_construct@std@@YAXXZ 0000000180001000 f   bcrypt_node.obj
 0001:00000010       ??__Eallocator_arg@std@@YAXXZ 0000000180001010 f   bcrypt_node.obj
 0001:000007f0       ?decode_base64@@YAXPEAEG0@Z 00000001800017f0 f   bcrypt.obj
 0001:00000ea0       ?encode_base64@@YAXPEAE0G@Z 0000000180001ea0 f   bcrypt.obj
 0001:00000f80       ?FunctionCallbackWrapper@imp@Nan@@YAXAEBV?$FunctionCallbackInfo@VValue@v8@@@v8@@@Z 0000000180001f80 f   bcrypt_node.obj
 0001:00003c10       _register_bcrypt_lib       0000000180004c10 f   bcrypt_node.obj
 0001:00004050       load_exe_hook              0000000180005050 f   win_delay_load_hook.obj
 0001:00004320       $$000000                   0000000180005320     LIBCMT:amdsecgs.obj
 0001:00004410       $$000000                   0000000180005410     LIBCMT:memcpy.obj
 0001:00004500       MoveSmall                  0000000180005500     LIBCMT:memcpy.obj
 0001:000053c0       swprintf                   00000001800063c0 f   LIBCMT:wassert.obj
 0001:000059e4       __DllMainCRTStartup        00000001800069e4 f   LIBCMT:dllcrt0.obj
 0001:00005c24       ?strtoxl@@YAKPEAUlocaleinfo_struct@@PEBDPEAPEBDHH@Z 0000000180006c24 f   LIBCMT:strtol.obj
 0001:00006bec       write_char                 0000000180007bec f   LIBCMT:output.obj
 0001:00006c34       write_multi_char           0000000180007c34 f   LIBCMT:output.obj
 0001:00006c88       write_string               0000000180007c88 f   LIBCMT:output.obj
 0001:00006e00       $$000000                   0000000180007e00     LIBCMT:memset.obj
 0001:00006fa5       MsetTab                    0000000180007fa5     LIBCMT:memset.obj
 0001:00007514       _initterm                  0000000180008514 f   LIBCMT:crt0dat.obj
 0001:000075c8       doexit                     00000001800085c8 f   LIBCMT:crt0dat.obj
 0001:00007da0       xtow_s                     0000000180008da0 f   LIBCMT:xtows.obj
 0001:000081a4       flsall                     00000001800091a4 f   LIBCMT:fflush.obj
 0001:00009590       ?getSystemCP@@YAHH@Z       000000018000a590 f   LIBCMT:mbctype.obj
 0001:00009610       ?setSBCS@@YAXPEAUthreadmbcinfostruct@@@Z 000000018000a610 f   LIBCMT:mbctype.obj
 0001:000096a0       ?setSBUpLow@@YAXPEAUthreadmbcinfostruct@@@Z 000000018000a6a0 f   LIBCMT:mbctype.obj
 0001:0000a9e8       parse_cmdline              000000018000b9e8 f   LIBCMT:stdargv.obj
 0001:0000c350       $$000000                   000000018000d350     LIBCMT:strlen.obj
 0001:0000d74c       write_char                 000000018000e74c f   LIBCMT:woutput.obj
 0001:0000d784       write_multi_char           000000018000e784 f   LIBCMT:woutput.obj
 0001:0000d7d8       write_string               000000018000e7d8 f   LIBCMT:woutput.obj
 0001:0000d9f0       $$000000                   000000018000e9f0     LIBCMT:jmpuwind.obj
 0001:0000dc10       $$000000                   000000018000ec10     LIBCMT:fpsr.obj
 0001:0000e0c4       _cftoe2_l                  000000018000f0c4 f   LIBCMT:cvt.obj
 0001:0000e3b8       _cftof2_l                  000000018000f3b8 f   LIBCMT:cvt.obj
 0001:0000e910       $$000000                   000000018000f910     LIBCMT:strcmp.obj
 0001:0000ef68       ?__crtLCMapStringA_stat@@YAHPEAUlocaleinfo_struct@@PEB_WKPEBDHPEADHHH@Z 000000018000ff68 f   LIBCMT:a_map.obj
 0001:0000f2ec       ?__crtGetStringTypeA_stat@@YAHPEAUlocaleinfo_struct@@KPEBDHPEAGHH@Z 00000001800102ec f   LIBCMT:a_str.obj
 0001:0000f4e0       $$000000                   00000001800104e0     LIBCMT:memcmp.obj
 0001:0000f5b8       ?x_ismbbtype_l@@YAHPEAUlocaleinfo_struct@@IHH@Z 00000001800105b8 f   LIBCMT:ismbbyte.obj
 0001:00010dc0       $$000000                   0000000180011dc0     LIBCMT:chkstk.obj
 0001:000129f0       $$000000                   00000001800139f0     LIBCMT:handlers.obj
 0001:00012a50       _onexit$fin$0              0000000180013a50 f   LIBCMT:onexit.obj
 0001:00012a64       _CRT_INIT$fin$0            0000000180013a64 f   LIBCMT:dllcrt0.obj
 0001:00012a8a       __DllMainCRTStartup$filt$0 0000000180013a8a f   LIBCMT:dllcrt0.obj
 0001:00012ad3       doexit$fin$0               0000000180013ad3 f   LIBCMT:crt0dat.obj
 0001:00012af7       flsall$fin$0               0000000180013af7 f   LIBCMT:fflush.obj
 0001:00012b1f       flsall$fin$1               0000000180013b1f f   LIBCMT:fflush.obj
 0001:00012b38       setvbuf$fin$0              0000000180013b38 f   LIBCMT:setvbuf.obj
 0001:00012b50       fwprintf$fin$0             0000000180013b50 f   LIBCMT:fwprintf.obj
 0001:00012b6a       raise$fin$0                0000000180013b6a f   LIBCMT:winsig.obj
 0001:00012b88       __updatetmbcinfo$fin$0     0000000180013b88 f   LIBCMT:mbctype.obj
 0001:00012b88       _setmbcp$fin$0             0000000180013b88 f   LIBCMT:mbctype.obj
 0001:00012ba1       _initptd$fin$1             0000000180013ba1 f   LIBCMT:tidtable.obj
 0001:00012ba1       _freefls$fin$1             0000000180013ba1 f   LIBCMT:tidtable.obj
 0001:00012bba       _initptd$fin$0             0000000180013bba f   LIBCMT:tidtable.obj
 0001:00012bba       _freefls$fin$0             0000000180013bba f   LIBCMT:tidtable.obj
 0001:00012bd3       __updatetlocinfo$fin$0     0000000180013bd3 f   LIBCMT:wsetloca.obj
 0001:00012bd3       _locterm$fin$0             0000000180013bd3 f   LIBCMT:wsetloca.obj
 0001:00012bec       _ioinit$fin$0              0000000180013bec f   LIBCMT:ioinit.obj
 0001:00012c07       _lseeki64$fin$0            0000000180013c07 f   LIBCMT:lseeki64.obj
 0001:00012c07       _write$fin$0               0000000180013c07 f   LIBCMT:lseeki64.obj
 0001:00012c1e       _mtinitlocknum$fin$0       0000000180013c1e f   LIBCMT:mlock.obj
 0001:00012c40       _IsNonwritableInCurrentImage$filt$0 0000000180013c40 f   LIBCMT:pesect.obj
 0001:00012c60       _fcloseall$fin$0           0000000180013c60 f   LIBCMT:closeall.obj
 0001:00012c79       ?fin$0@?0??_Type_info_dtor@type_info@@CAXPEAV1@@Z@4HA 0000000180013c79 f   LIBCMT:typname.obj
 0001:00012c92       __lock_fhandle$fin$0       0000000180013c92 f   LIBCMT:osfinfo.obj
 0001:00012cab       fflush$fin$0               0000000180013cab f   LIBCMT:fclose.obj
 0001:00012cab       fclose$fin$0               0000000180013cab f   LIBCMT:fclose.obj
 0001:00012cc3       _close$fin$0               0000000180013cc3 f   LIBCMT:close.obj
 0001:00012cc3       _commit$fin$0              0000000180013cc3 f   LIBCMT:close.obj
 0001:00012cda       __DestructExceptionObject$filt$0 0000000180013cda f   LIBCMT:frame.obj
 0002:00000230       piecewise_construct$initializer$ 0000000180014230     bcrypt_node.obj
 0002:00000238       allocator_arg$initializer$ 0000000180014238     bcrypt_node.obj
 0002:00000258       pinit                      0000000180014258     LIBCMT:onexit.obj
 0002:00000260       pinit                      0000000180014260     LIBCMT:cpu_disp.obj
 0002:00000268       pinit                      0000000180014268     LIBCMT:_file.obj
 0002:00000270       pinit                      0000000180014270     LIBCMT:mbctype.obj
 0002:00000288       pterm                      0000000180014288     LIBCMT:wsetloca.obj
 0002:00000290       pterm                      0000000180014290     LIBCMT:initcon.obj
 0002:00000298       pterm                      0000000180014298     LIBCMT:_file.obj
 0002:000005c8       GS_ExceptionPointers       00000001800145c8     LIBCMT:gs_report.obj
 0002:00000680       rterrs                     0000000180014680     LIBCMT:crt0msg.obj
 0002:00001220       ?ExceptionTemplate@?1??_CxxThrowException@@9@4UEHExceptionRecord@@B 0000000180015220     LIBCMT:throw.obj
 0002:00001270       _mb_locale_names           0000000180015270     LIBCMT:mbctype.obj
 0002:00001690       _first_127char             0000000180015690     LIBCMT:wsetloca.obj
 0002:00004e10       __real@433fffffffffffff    0000000180018e10     LIBCMT:fpsr.obj
 0002:00004e18       __real@c33fffffffffffff    0000000180018e18     LIBCMT:fpsr.obj
 0002:00005780       tokenTable                 0000000180019780     LIBCMT:undname.obj
 0002:000057f0       nameTable                  00000001800197f0     LIBCMT:undname.obj
 0002:00005a70       rttiTable                  0000000180019a70     LIBCMT:undname.obj
 0002:00006110       _Win_errtab                000000018001a110     libcpmt:syserror.obj
 0002:000065c0       _Sys_errtab                000000018001a5c0     libcpmt:syserror.obj
 0002:00007450       ?initstate@?1??Blowfish_initstate@@YAXPEAUBlowfishContext@@@Z@4U2@B 000000018001b450     blowfish.obj
 0002:000084d0       error                      000000018001c4d0     bcrypt.obj
 0002:000084e0       index_64                   000000018001c4e0     bcrypt.obj
 0002:00008560       Base64Code                 000000018001c560     bcrypt.obj
 0002:00008d90       $unwind$?Blowfish_encipher@@YAXPEAUBlowfishContext@@PEAI1@Z 000000018001cd90     blowfish.obj
 0002:00008d9c       $unwind$?Blowfish_expand0state@@YAXPEAUBlowfishContext@@PEBEG@Z 000000018001cd9c     blowfish.obj
 0002:00008db0       $unwind$?Blowfish_expandstate@@YAXPEAUBlowfishContext@@PEBEG1G@Z 000000018001cdb0     blowfish.obj
 0002:00008dc8       $unwind$?bcrypt@@YAXPEBD0PEAD@Z 000000018001cdc8     bcrypt.obj
 0002:00008de4       $chain$0$?bcrypt@@YAXPEBD0PEAD@Z 000000018001cde4     bcrypt.obj
 0002:00008df8       $chain$1$?bcrypt@@YAXPEBD0PEAD@Z 000000018001cdf8     bcrypt.obj
 0002:00008e0c       $chain$2$?bcrypt@@YAXPEBD0PEAD@Z 000000018001ce0c     bcrypt.obj
 0002:00008e1c       $chain$3$?bcrypt@@YAXPEBD0PEAD@Z 000000018001ce1c     bcrypt.obj
 0002:00008e2c       $unwind$?encode_base64@@YAXPEAE0G@Z 000000018001ce2c     bcrypt.obj
 0002:00008e34       $chain$0$?encode_base64@@YAXPEAE0G@Z 000000018001ce34     bcrypt.obj
 0002:00008e48       $chain$2$?encode_base64@@YAXPEAE0G@Z 000000018001ce48     bcrypt.obj
 0002:00008e48       $chain$4$?encode_base64@@YAXPEAE0G@Z 000000018001ce48     bcrypt.obj
 0002:00008e5c       $chain$5$?encode_base64@@YAXPEAE0G@Z 000000018001ce5c     bcrypt.obj
 0002:00008e6c       $unwind$?FunctionCallbackWrapper@imp@Nan@@YAXAEBV?$FunctionCallbackInfo@VValue@v8@@@v8@@@Z 000000018001ce6c     bcrypt_node.obj
 0002:00008e6c       $unwind$_setargv           000000018001ce6c     LIBCMT:stdargv.obj
 0002:00008e7c       $unwind$?New@?$Factory@VFunctionTemplate@v8@@@imp@Nan@@SA?AV?$Local@VFunctionTemplate@v8@@@v8@@P6AXAEBV?$FunctionCallbackInfo@VValue@v8@@@3@@ZV?$Local@VValue@v8@@@5@V?$Local@VSignature@v8@@@5@@Z 000000018001ce7c     bcrypt_node.obj
 0002:00008e88       $chain$0$?New@?$Factory@VFunctionTemplate@v8@@@imp@Nan@@SA?AV?$Local@VFunctionTemplate@v8@@@v8@@P6AXAEBV?$FunctionCallbackInfo@VValue@v8@@@3@@ZV?$Local@VValue@v8@@@5@V?$Local@VSignature@v8@@@5@@Z 000000018001ce88     bcrypt_node.obj
 0002:00008e9c       $chain$1$?New@?$Factory@VFunctionTemplate@v8@@@imp@Nan@@SA?AV?$Local@VFunctionTemplate@v8@@@v8@@P6AXAEBV?$FunctionCallbackInfo@VValue@v8@@@3@@ZV?$Local@VValue@v8@@@5@V?$Local@VSignature@v8@@@5@@Z 000000018001ce9c     bcrypt_node.obj
 0002:00008eac       $unwind$?ThrowTypeError@Nan@@YAXPEBD@Z 000000018001ceac     bcrypt_node.obj
 0002:00008eac       $unwind$?ThrowError@Nan@@YAXPEBD@Z 000000018001ceac     bcrypt_node.obj
 0002:00008eb4       $unwind$_fassign_l         000000018001ceb4     LIBCMT:cvt.obj
 0002:00008eb4       $unwind$??0Utf8String@Nan@@QEAA@V?$Local@VValue@v8@@@v8@@@Z 000000018001ceb4     bcrypt_node.obj
 0002:00008ebc       $chain$0$??0Utf8String@Nan@@QEAA@V?$Local@VValue@v8@@@v8@@@Z 000000018001cebc     bcrypt_node.obj
 0002:00008ed0       $chain$1$??0Utf8String@Nan@@QEAA@V?$Local@VValue@v8@@@v8@@@Z 000000018001ced0     bcrypt_node.obj
 0002:00008ee0       $unwind$??0Callback@Nan@@QEAA@AEBV?$Local@VFunction@v8@@@v8@@@Z 000000018001cee0     bcrypt_node.obj
 0002:00008ef0       $unwind$?SetFunction@Callback@Nan@@QEAAXAEBV?$Local@VFunction@v8@@@v8@@@Z 000000018001cef0     bcrypt_node.obj
 0002:00008efc       $unwind$??0AsyncWorker@Nan@@QEAA@PEAVCallback@1@@Z 000000018001cefc     bcrypt_node.obj
 0002:00008f08       $unwind$??1AsyncWorker@Nan@@UEAA@XZ 000000018001cf08     bcrypt_node.obj
 0002:00008f08       $unwind$?WorkComplete@AsyncWorker@Nan@@UEAAXXZ 000000018001cf08     bcrypt_node.obj
 0002:00008f14       $unwind$?HandleOKCallback@AsyncWorker@Nan@@MEAAXXZ 000000018001cf14     bcrypt_node.obj
 0002:00008f20       $unwind$?HandleErrorCallback@AsyncWorker@Nan@@MEAAXXZ 000000018001cf20     bcrypt_node.obj
 0002:00008f2c       $unwind$_fclose_nolock     000000018001cf2c     LIBCMT:fclose.obj
 0002:00008f2c       $unwind$_calloc_impl       000000018001cf2c     LIBCMT:calloc_impl.obj
 0002:00008f2c       $unwind$_RTC_Initialize    000000018001cf2c     LIBCMT:initsect.obj
 0002:00008f2c       $unwind$_dosmaperr         000000018001cf2c     LIBCMT:dosmap.obj
 0002:00008f2c       $unwind$_RTC_Terminate     000000018001cf2c     LIBCMT:initsect.obj
 0002:00008f2c       $unwind$??_GAsyncWorker@Nan@@UEAAPEAXI@Z 000000018001cf2c     bcrypt_node.obj
 0002:00008f2c       $unwind$??4exception@std@@QEAAAEAV01@AEBV01@@Z 000000018001cf2c     LIBCMT:stdexcpt.obj
 0002:00008f2c       $unwind$??_Gtype_info@@UEAAPEAXI@Z 000000018001cf2c     LIBCMT:typinfo.obj
 0002:00008f2c       $unwind$__initstdio        000000018001cf2c     LIBCMT:_file.obj
 0002:00008f2c       $unwind$_fptostr           000000018001cf2c     LIBCMT:_fptostr.obj
 0002:00008f2c       $unwind$_getptd_noexit     000000018001cf2c     LIBCMT:tidtable.obj
 0002:00008f2c       $unwind$?erase@?$basic_string@DU?$char_traits@D@std@@V?$allocator@D@2@@std@@QEAAAEAV12@_K0@Z 000000018001cf2c     bcrypt_node.obj
 0002:00008f2c       $unwind$??_Glogic_error@std@@UEAAPEAXI@Z 000000018001cf2c     libcpmt:xthrow.obj
 0002:00008f2c       $unwind$??_GSaltAsyncWorker@?A0x134cc3bc@@UEAAPEAXI@Z 000000018001cf2c     bcrypt_node.obj
 0002:00008f2c       $unwind$??_Gout_of_range@std@@UEAAPEAXI@Z 000000018001cf2c     libcpmt:xthrow.obj
 0002:00008f2c       $unwind$_initp_misc_cfltcvt_tab 000000018001cf2c     LIBCMT:cmiscdat.obj
 0002:00008f2c       $unwind$??_Gbad_alloc@std@@UEAAPEAXI@Z 000000018001cf2c     LIBCMT:new.obj
 0002:00008f2c       $unwind$??_GCompareAsyncWorker@?A0x134cc3bc@@UEAAPEAXI@Z 000000018001cf2c     bcrypt_node.obj
 0002:00008f2c       $unwind$_close_nolock      000000018001cf2c     LIBCMT:close.obj
 0002:00008f2c       $unwind$_updatetlocinfoEx_nolock 000000018001cf2c     LIBCMT:localref.obj
 0002:00008f2c       $unwind$__freeCrtMemory    000000018001cf2c     LIBCMT:crt0dat.obj
 0002:00008f2c       $unwind$_initterm_e        000000018001cf2c     LIBCMT:crt0dat.obj
 0002:00008f2c       $unwind$_lock              000000018001cf2c     LIBCMT:mlock.obj
 0002:00008f2c       $unwind$??_Gexception@std@@UEAAPEAXI@Z 000000018001cf2c     LIBCMT:stdexcpt.obj
 0002:00008f2c       $unwind$??_Glength_error@std@@UEAAPEAXI@Z 000000018001cf2c     libcpmt:xthrow.obj
 0002:00008f2c       $unwind$??_GEncryptAsyncWorker@?A0x134cc3bc@@UEAAPEAXI@Z 000000018001cf2c     bcrypt_node.obj
 0002:00008f2c       $unwind$??1EncryptAsyncWorker@?A0x134cc3bc@@UEAA@XZ 000000018001cf2c     bcrypt_node.obj
 0002:00008f38       $unwind$??0bad_alloc@std@@QEAA@AEBV01@@Z 000000018001cf38     LIBCMT:new.obj
 0002:00008f38       $unwind$__raise_securityfailure 000000018001cf38     LIBCMT:gs_report.obj
 0002:00008f38       $unwind$??0out_of_range@std@@QEAA@AEBV01@@Z 000000018001cf38     libcpmt:xthrow.obj
 0002:00008f38       $unwind$??0exception@std@@QEAA@AEBV01@@Z 000000018001cf38     LIBCMT:stdexcpt.obj
 0002:00008f38       $unwind$_amsg_exit         000000018001cf38     LIBCMT:crt0dat.obj
 0002:00008f38       $unwind$?AsyncExecuteComplete@Nan@@YAXPEAUuv_work_s@@@Z 000000018001cf38     bcrypt_node.obj
 0002:00008f38       $unwind$__crtExitProcess   000000018001cf38     LIBCMT:crt0dat.obj
 0002:00008f38       $unwind$__onexitinit       000000018001cf38     LIBCMT:onexit.obj
 0002:00008f38       $unwind$__crtCorExitProcess 000000018001cf38     LIBCMT:crt0dat.obj
 0002:00008f38       $unwind$??0exception@std@@QEAA@AEBQEBD@Z 000000018001cf38     LIBCMT:stdexcpt.obj
 0002:00008f38       $unwind$_cinit             000000018001cf38     LIBCMT:crt0dat.obj
 0002:00008f38       $unwind$write_char         000000018001cf38     LIBCMT:output.obj
 0002:00008f38       $unwind$?ValidateSalt@?A0x134cc3bc@@YA_NPEBD@Z 000000018001cf38     bcrypt_node.obj
 0002:00008f38       $unwind$?_Tidy@exception@std@@AEAAXXZ 000000018001cf38     LIBCMT:stdexcpt.obj
 0002:00008f38       $unwind$_init_pointers     000000018001cf38     LIBCMT:crt0dat.obj
 0002:00008f38       $unwind$__crtLoadWinApiPointers 000000018001cf38     LIBCMT:winapisupp.obj
 0002:00008f38       $unwind$strcpy_s           000000018001cf38     LIBCMT:strcpy_s.obj
 0002:00008f38       $unwind$_callnewh          000000018001cf38     LIBCMT:handler.obj
 0002:00008f38       $unwind$??1SaltAsyncWorker@?A0x134cc3bc@@UEAA@XZ 000000018001cf38     bcrypt_node.obj
 0002:00008f38       $unwind$_getbuf            000000018001cf38     LIBCMT:_getbuf.obj
 0002:00008f38       $unwind$??1CompareAsyncWorker@?A0x134cc3bc@@UEAA@XZ 000000018001cf38     bcrypt_node.obj
 0002:00008f38       $unwind$??0length_error@std@@QEAA@AEBV01@@Z 000000018001cf38     libcpmt:xthrow.obj
 0002:00008f38       $unwind$_freebuf           000000018001cf38     LIBCMT:_freebuf.obj
 0002:00008f38       $unwind$_getptd            000000018001cf38     LIBCMT:tidtable.obj
 0002:00008f38       $unwind$??0logic_error@std@@QEAA@AEBV01@@Z 000000018001cf38     libcpmt:xthrow.obj
 0002:00008f38       $unwind$wcsncpy_s          000000018001cf38     LIBCMT:wcsncpy_s.obj
 0002:00008f38       $unwind$wcsncat_s          000000018001cf38     LIBCMT:wcsncat_s.obj
 0002:00008f38       $unwind$wcscpy_s           000000018001cf38     LIBCMT:wcscpy_s.obj
 0002:00008f38       $unwind$_lock_file2        000000018001cf38     LIBCMT:_file.obj
 0002:00008f38       $unwind$_fflush_nolock     000000018001cf38     LIBCMT:fflush.obj
 0002:00008f38       $unwind$_mtinit            000000018001cf38     LIBCMT:tidtable.obj
 0002:00008f38       $unwind$_freeptd           000000018001cf38     LIBCMT:tidtable.obj
 0002:00008f38       $unwind$write_char         000000018001cf38     LIBCMT:woutput.obj
 0002:00008f38       $unwind$__crtTerminateProcess 000000018001cf38     LIBCMT:winapisupp.obj
 0002:00008f38       $unwind$??0_LocaleUpdate@@QEAA@PEAUlocaleinfo_struct@@@Z 000000018001cf38     LIBCMT:stricmp.obj
 0002:00008f38       $unwind$__GSHandlerCheckCommon 000000018001cf38     LIBCMT:gshandler.obj
 0002:00008f38       $unwind$__crtUnhandledException 000000018001cf38     LIBCMT:winapisupp.obj
 0002:00008f38       $unwind$_lock_file         000000018001cf38     LIBCMT:_file.obj
 0002:00008f38       $unwind$__crtIsPackagedApp 000000018001cf38     LIBCMT:winapisupp.obj
 0002:00008f38       $unwind$wcscat_s           000000018001cf38     LIBCMT:wcscat_s.obj
 0002:00008f38       $unwind$load_exe_hook      000000018001cf38     win_delay_load_hook.obj
 0002:00008f40       $unwind$?Export@Nan@@YAXV?$Local@VObject@v8@@@v8@@PEBDP6AXAEBV?$FunctionCallbackInfo@VValue@v8@@@1@@Z@Z 000000018001cf40     bcrypt_node.obj
 0002:00008f50       $unwind$??0SaltAsyncWorker@?A0x134cc3bc@@QEAA@PEAVCallback@Nan@@V?$basic_string@DU?$char_traits@D@std@@V?$allocator@D@2@@std@@_J@Z 000000018001cf50     bcrypt_node.obj
 0002:00008f60       $unwind$?Execute@SaltAsyncWorker@?A0x134cc3bc@@UEAAXXZ 000000018001cf60     bcrypt_node.obj
 0002:00008f74       $unwind$?HandleOKCallback@SaltAsyncWorker@?A0x134cc3bc@@UEAAXXZ 000000018001cf74     bcrypt_node.obj
 0002:00008f74       $unwind$?HandleOKCallback@CompareAsyncWorker@?A0x134cc3bc@@UEAAXXZ 000000018001cf74     bcrypt_node.obj
 0002:00008f80       $unwind$?GenerateSalt@?A0x134cc3bc@@YAXAEBV?$FunctionCallbackInfo@VValue@v8@@@Nan@@@Z 000000018001cf80     bcrypt_node.obj
 0002:00008f8c       $chain$2$?GenerateSalt@?A0x134cc3bc@@YAXAEBV?$FunctionCallbackInfo@VValue@v8@@@Nan@@@Z 000000018001cf8c     bcrypt_node.obj
 0002:00008fa8       $chain$3$?GenerateSalt@?A0x134cc3bc@@YAXAEBV?$FunctionCallbackInfo@VValue@v8@@@Nan@@@Z 000000018001cfa8     bcrypt_node.obj
 0002:00008fb8       $unwind$?GenerateSaltSync@?A0x134cc3bc@@YAXAEBV?$FunctionCallbackInfo@VValue@v8@@@Nan@@@Z 000000018001cfb8     bcrypt_node.obj
 0002:00008fd4       $chain$0$?GenerateSaltSync@?A0x134cc3bc@@YAXAEBV?$FunctionCallbackInfo@VValue@v8@@@Nan@@@Z 000000018001cfd4     bcrypt_node.obj
 0002:00008fe8       $chain$1$?GenerateSaltSync@?A0x134cc3bc@@YAXAEBV?$FunctionCallbackInfo@VValue@v8@@@Nan@@@Z 000000018001cfe8     bcrypt_node.obj
 0002:00008ff8       $unwind$??0EncryptAsyncWorker@?A0x134cc3bc@@QEAA@PEAVCallback@Nan@@V?$basic_string@DU?$char_traits@D@std@@V?$allocator@D@2@@std@@1@Z 000000018001cff8     bcrypt_node.obj
 0002:00008ff8       $unwind$??0CompareAsyncWorker@?A0x134cc3bc@@QEAA@PEAVCallback@Nan@@V?$basic_string@DU?$char_traits@D@std@@V?$allocator@D@2@@std@@1@Z 000000018001cff8     bcrypt_node.obj
 0002:00009008       $unwind$?Execute@EncryptAsyncWorker@?A0x134cc3bc@@UEAAXXZ 000000018001d008     bcrypt_node.obj
 0002:00009020       $unwind$?HandleOKCallback@EncryptAsyncWorker@?A0x134cc3bc@@UEAAXXZ 000000018001d020     bcrypt_node.obj
 0002:00009030       $unwind$?Compare@?A0x134cc3bc@@YAXAEBV?$FunctionCallbackInfo@VValue@v8@@@Nan@@@Z 000000018001d030     bcrypt_node.obj
 0002:00009030       $unwind$?Encrypt@?A0x134cc3bc@@YAXAEBV?$FunctionCallbackInfo@VValue@v8@@@Nan@@@Z 000000018001d030     bcrypt_node.obj
 0002:00009048       $chain$0$?Encrypt@?A0x134cc3bc@@YAXAEBV?$FunctionCallbackInfo@VValue@v8@@@Nan@@@Z 000000018001d048     bcrypt_node.obj
 0002:0000905c       $chain$1$?Encrypt@?A0x134cc3bc@@YAXAEBV?$FunctionCallbackInfo@VValue@v8@@@Nan@@@Z 000000018001d05c     bcrypt_node.obj
 0002:00009070       $chain$2$?Encrypt@?A0x134cc3bc@@YAXAEBV?$FunctionCallbackInfo@VValue@v8@@@Nan@@@Z 000000018001d070     bcrypt_node.obj
 0002:00009080       $chain$3$?Encrypt@?A0x134cc3bc@@YAXAEBV?$FunctionCallbackInfo@VValue@v8@@@Nan@@@Z 000000018001d080     bcrypt_node.obj
 0002:00009090       $unwind$?EncryptSync@?A0x134cc3bc@@YAXAEBV?$FunctionCallbackInfo@VValue@v8@@@Nan@@@Z 000000018001d090     bcrypt_node.obj
 0002:000090ac       $unwind$?Execute@CompareAsyncWorker@?A0x134cc3bc@@UEAAXXZ 000000018001d0ac     bcrypt_node.obj
 0002:000090c4       $chain$1$?Execute@CompareAsyncWorker@?A0x134cc3bc@@UEAAXXZ 000000018001d0c4     bcrypt_node.obj
 0002:000090dc       $chain$2$?Execute@CompareAsyncWorker@?A0x134cc3bc@@UEAAXXZ 000000018001d0dc     bcrypt_node.obj
 0002:000090ec       $chain$0$?Compare@?A0x134cc3bc@@YAXAEBV?$FunctionCallbackInfo@VValue@v8@@@Nan@@@Z 000000018001d0ec     bcrypt_node.obj
 0002:00009100       $chain$1$?Compare@?A0x134cc3bc@@YAXAEBV?$FunctionCallbackInfo@VValue@v8@@@Nan@@@Z 000000018001d100     bcrypt_node.obj
 0002:00009114       $chain$2$?Compare@?A0x134cc3bc@@YAXAEBV?$FunctionCallbackInfo@VValue@v8@@@Nan@@@Z 000000018001d114     bcrypt_node.obj
 0002:00009124       $chain$3$?Compare@?A0x134cc3bc@@YAXAEBV?$FunctionCallbackInfo@VValue@v8@@@Nan@@@Z 000000018001d124     bcrypt_node.obj
 0002:00009134       $unwind$?CompareSync@?A0x134cc3bc@@YAXAEBV?$FunctionCallbackInfo@VValue@v8@@@Nan@@@Z 000000018001d134     bcrypt_node.obj
 0002:00009150       $chain$0$?CompareSync@?A0x134cc3bc@@YAXAEBV?$FunctionCallbackInfo@VValue@v8@@@Nan@@@Z 000000018001d150     bcrypt_node.obj
 0002:00009164       $chain$1$?CompareSync@?A0x134cc3bc@@YAXAEBV?$FunctionCallbackInfo@VValue@v8@@@Nan@@@Z 000000018001d164     bcrypt_node.obj
 0002:00009178       $chain$2$?CompareSync@?A0x134cc3bc@@YAXAEBV?$FunctionCallbackInfo@VValue@v8@@@Nan@@@Z 000000018001d178     bcrypt_node.obj
 0002:00009188       $chain$3$?CompareSync@?A0x134cc3bc@@YAXAEBV?$FunctionCallbackInfo@VValue@v8@@@Nan@@@Z 000000018001d188     bcrypt_node.obj
 0002:00009198       $unwind$?GetRounds@?A0x134cc3bc@@YAXAEBV?$FunctionCallbackInfo@VValue@v8@@@Nan@@@Z 000000018001d198     bcrypt_node.obj
 0002:000091b0       $unwind$?init@@YAXV?$Local@VObject@v8@@@v8@@@Z 000000018001d1b0     bcrypt_node.obj
 0002:000091b8       $unwind$xtow_s             000000018001d1b8     LIBCMT:xtows.obj
 0002:000091b8       $unwind$__freetlocinfo     000000018001d1b8     LIBCMT:localref.obj
 0002:000091b8       $unwind$?setSBCS@@YAXPEAUthreadmbcinfostruct@@@Z 000000018001d1b8     LIBCMT:mbctype.obj
 0002:000091b8       $unwind$?assign@?$basic_string@DU?$char_traits@D@std@@V?$allocator@D@2@@std@@QEAAAEAV12@AEBV12@_K1@Z 000000018001d1b8     bcrypt_node.obj
 0002:000091b8       $unwind$_XcptFilter        000000018001d1b8     LIBCMT:winxfltr.obj
 0002:000091b8       $unwind$?_Copy@?$basic_string@DU?$char_traits@D@std@@V?$allocator@D@2@@std@@QEAAX_K0@Z 000000018001d1b8     bcrypt_node.obj
 0002:000091b8       $unwind$_initterm          000000018001d1b8     LIBCMT:crt0dat.obj
 0002:000091b8       $unwind$_mtdeletelocks     000000018001d1b8     LIBCMT:mlock.obj
 0002:000091cc       $unwind$_lseeki64_nolock   000000018001d1cc     LIBCMT:lseeki64.obj
 0002:000091cc       $unwind$memcpy_s           000000018001d1cc     LIBCMT:memcpy_s.obj
 0002:000091cc       $unwind$?assign@?$basic_string@DU?$char_traits@D@std@@V?$allocator@D@2@@std@@QEAAAEAV12@PEBD_K@Z 000000018001d1cc     bcrypt_node.obj
 0002:000091cc       $unwind$_mtinitlocks       000000018001d1cc     LIBCMT:mlock.obj
 0002:000091cc       $unwind$_flush             000000018001d1cc     LIBCMT:fflush.obj
 0002:000091cc       $unwind$realloc            000000018001d1cc     LIBCMT:realloc.obj
 0002:000091cc       $unwind$_DllMainCRTStartup 000000018001d1cc     LIBCMT:dllcrt0.obj
 0002:000091cc       $unwind$_ioterm            000000018001d1cc     LIBCMT:ioinit.obj
 0002:000091cc       $unwind$malloc             000000018001d1cc     LIBCMT:malloc.obj
 0002:000091dc       xdata                      000000018001d1dc     node:node.exe
 0002:000091e8       $xdatasym                  000000018001d1e8     LIBCMT:amdsecgs.obj
 0002:000091ec       $unwind$_snprintf          000000018001d1ec     LIBCMT:snprintf.obj
 0002:00009200       $xdatasym                  000000018001d200     LIBCMT:memcpy.obj
 0002:00009204       $unwind$swprintf           000000018001d204     LIBCMT:wassert.obj
 0002:0000920c       $unwind$_wassert           000000018001d20c     LIBCMT:wassert.obj
 0002:00009230       $unwind$_onexit            000000018001d230     LIBCMT:onexit.obj
 0002:00009260       $unwind$_forcdecpt_l       000000018001d260     LIBCMT:new.obj
 0002:00009260       $unwind$isleadbyte         000000018001d260     LIBCMT:new.obj
 0002:00009260       $unwind$_isleadbyte_l      000000018001d260     LIBCMT:new.obj
 0002:00009260       $unwind$?getSystemCP@@YAHH@Z 000000018001d260     LIBCMT:new.obj
 0002:00009260       $unwind$_cropzeros_l       000000018001d260     LIBCMT:new.obj
 0002:00009260       $unwind$isdigit            000000018001d260     LIBCMT:new.obj
 0002:00009260       $unwind$??2@YAPEAX_K@Z     000000018001d260     LIBCMT:new.obj
 0002:00009268       $unwind$_CRT_INIT          000000018001d268     LIBCMT:dllcrt0.obj
 0002:00009288       $unwind$__DllMainCRTStartup 000000018001d288     LIBCMT:dllcrt0.obj
 0002:000092b0       $unwind$__report_gsfailure 000000018001d2b0     LIBCMT:gs_report.obj
 0002:000092b0       $unwind$_putwch_nolock     000000018001d2b0     LIBCMT:gs_report.obj
 0002:000092b8       $unwind$_itow_s            000000018001d2b8     LIBCMT:strtol.obj
 0002:000092b8       $unwind$_cfltcvt_l         000000018001d2b8     LIBCMT:strtol.obj
 0002:000092b8       $unwind$wctomb_s           000000018001d2b8     LIBCMT:strtol.obj
 0002:000092b8       $unwind$_vswprintf_c_l     000000018001d2b8     LIBCMT:strtol.obj
 0002:000092b8       $unwind$strtol             000000018001d2b8     LIBCMT:strtol.obj
 0002:000092b8       $unwind$_invalid_parameter_noinfo 000000018001d2b8     LIBCMT:strtol.obj
 0002:000092c0       $unwind$?strtoxl@@YAKPEAUlocaleinfo_struct@@PEBDPEAPEBDHH@Z 000000018001d2c0     LIBCMT:strtol.obj
 0002:000092d8       $unwind$_call_reportfault  000000018001d2d8     LIBCMT:invarg.obj
 0002:000092f8       $unwind$_setenvp           000000018001d2f8     LIBCMT:invarg.obj
 0002:000092f8       $unwind$_invalid_parameter 000000018001d2f8     LIBCMT:invarg.obj
 0002:0000930c       $unwind$_flsbuf            000000018001d30c     LIBCMT:_flsbuf.obj
 0002:00009320       $unwind$_output_l          000000018001d320     LIBCMT:output.obj
 0002:00009344       $unwind$write_string       000000018001d344     LIBCMT:output.obj
 0002:00009344       $unwind$write_string       000000018001d344     LIBCMT:output.obj
 0002:00009360       $xdatasym                  000000018001d360     LIBCMT:memset.obj
 0002:00009364       $unwind$__isa_available_init 000000018001d364     LIBCMT:cpu_disp.obj
 0002:00009378       $unwind$doexit             000000018001d378     LIBCMT:crt0dat.obj
 0002:000093a8       $unwind$_mtterm            000000018001d3a8     LIBCMT:crt0msg.obj
 0002:000093a8       $unwind$__initmbctable     000000018001d3a8     LIBCMT:crt0msg.obj
 0002:000093a8       $unwind$__doserrno         000000018001d3a8     LIBCMT:crt0msg.obj
 0002:000093a8       $unwind$_FF_MSGBANNER      000000018001d3a8     LIBCMT:crt0msg.obj
 0002:000093a8       $unwind$abort              000000018001d3a8     LIBCMT:crt0msg.obj
 0002:000093a8       $unwind$__crtInitializeCriticalSectionEx 000000018001d3a8     LIBCMT:crt0msg.obj
 0002:000093a8       $unwind$_heap_init         000000018001d3a8     LIBCMT:crt0msg.obj
 0002:000093a8       $unwind$_msize             000000018001d3a8     LIBCMT:crt0msg.obj
 0002:000093a8       $unwind$_set_error_mode    000000018001d3a8     LIBCMT:crt0msg.obj
 0002:000093a8       $unwind$__endstdio         000000018001d3a8     LIBCMT:crt0msg.obj
 0002:000093a8       $unwind$__crtDownlevelLocaleNameToLCID 000000018001d3a8     LIBCMT:crt0msg.obj
 0002:000093a8       $unwind$_stricmp           000000018001d3a8     LIBCMT:crt0msg.obj
 0002:000093a8       $unwind$_purecall          000000018001d3a8     LIBCMT:crt0msg.obj
 0002:000093a8       $unwind$_get_osfhandle     000000018001d3a8     LIBCMT:crt0msg.obj
 0002:000093a8       $unwind$__termconout       000000018001d3a8     LIBCMT:crt0msg.obj
 0002:000093a8       $unwind$_initp_eh_hooks    000000018001d3a8     LIBCMT:crt0msg.obj
 0002:000093a8       $unwind$atexit             000000018001d3a8     LIBCMT:crt0msg.obj
 0002:000093a8       $unwind$_isatty            000000018001d3a8     LIBCMT:crt0msg.obj
 0002:000093a8       $unwind$__GSHandlerCheck   000000018001d3a8     LIBCMT:crt0msg.obj
 0002:000093a8       $unwind$_errno             000000018001d3a8     LIBCMT:crt0msg.obj
 0002:000093a8       $unwind$_invoke_watson     000000018001d3a8     LIBCMT:crt0msg.obj
 0002:000093a8       $unwind$_fileno            000000018001d3a8     LIBCMT:crt0msg.obj
 0002:000093b0       $unwind$_NMSG_WRITE        000000018001d3b0     LIBCMT:crt0msg.obj
 0002:000093d4       $unwind$fflush             000000018001d3d4     LIBCMT:fflush.obj
 0002:000093f8       $unwind$flsall             000000018001d3f8     LIBCMT:fflush.obj
 0002:00009438       $unwind$setvbuf            000000018001d438     LIBCMT:setvbuf.obj
 0002:00009464       $unwind$fwprintf           000000018001d464     LIBCMT:fwprintf.obj
 0002:00009488       $unwind$_vswprintf_helper  000000018001d488     LIBCMT:vswprnc.obj
 0002:000094a0       $unwind$raise              000000018001d4a0     LIBCMT:winsig.obj
 0002:000094d0       $unwind$__crtMessageBoxW   000000018001d4d0     LIBCMT:crtmboxw.obj
 0002:000094ec       $unwind$_calloc_crt        000000018001d4ec     LIBCMT:crtheap.obj
 0002:000094ec       $unwind$GetTableIndexFromLocaleName 000000018001d4ec     LIBCMT:crtheap.obj
 0002:000094ec       $unwind$_realloc_crt       000000018001d4ec     LIBCMT:crtheap.obj
 0002:000094ec       $unwind$_malloc_crt        000000018001d4ec     LIBCMT:crtheap.obj
 0002:00009504       $unwind$__C_specific_handler 000000018001d504     LIBCMT:chandler.obj
 0002:00009520       $unwind$?_Copy_str@exception@std@@AEAAXPEBD@Z 000000018001d520     LIBCMT:stdexcpt.obj
 0002:00009530       $unwind$_CxxThrowException 000000018001d530     LIBCMT:throw.obj
 0002:00009540       $unwind$__updatetlocinfo   000000018001d540     LIBCMT:localref.obj
 0002:00009560       $unwind$__updatetmbcinfo   000000018001d560     LIBCMT:mbctype.obj
 0002:00009584       $unwind$_setmbcp           000000018001d584     LIBCMT:mbctype.obj
 0002:000095b4       $unwind$_setmbcp_nolock    000000018001d5b4     LIBCMT:mbctype.obj
 0002:000095d4       $unwind$?setSBUpLow@@YAXPEAUthreadmbcinfostruct@@@Z 000000018001d5d4     LIBCMT:mbctype.obj
 0002:000095f0       $unwind$_tolower_l         000000018001d5f0     LIBCMT:tolower.obj
 0002:00009600       $unwind$_freefls           000000018001d600     LIBCMT:tidtable.obj
 0002:00009634       $unwind$_initptd           000000018001d634     LIBCMT:tidtable.obj
 0002:00009668       $unwind$_locterm           000000018001d668     LIBCMT:wsetloca.obj
 0002:00009688       $unwind$_commit$fin$0      000000018001d688     LIBCMT:wsetloca.obj
 0002:00009688       $unwind$__lock_fhandle$fin$0 000000018001d688     LIBCMT:wsetloca.obj
 0002:00009688       $unwind$_mtinitlocknum$fin$0 000000018001d688     LIBCMT:wsetloca.obj
 0002:00009688       $unwind$_freefls$fin$1     000000018001d688     LIBCMT:wsetloca.obj
 0002:00009688       $unwind$_locterm$fin$0     000000018001d688     LIBCMT:wsetloca.obj
 0002:00009688       $unwind$raise$fin$0        000000018001d688     LIBCMT:wsetloca.obj
 0002:00009688       $unwind$__DllMainCRTStartup$filt$0 000000018001d688     LIBCMT:wsetloca.obj
 0002:00009688       $unwind$?fin$0@?0??_Type_info_dtor@type_info@@CAXPEAV1@@Z@4HA 000000018001d688     LIBCMT:wsetloca.obj
 0002:00009688       $unwind$_CRT_INIT$fin$0    000000018001d688     LIBCMT:wsetloca.obj
 0002:00009688       $unwind$setvbuf$fin$0      000000018001d688     LIBCMT:wsetloca.obj
 0002:00009688       $unwind$_fcloseall$fin$0   000000018001d688     LIBCMT:wsetloca.obj
 0002:00009688       $unwind$__DestructExceptionObject$filt$0 000000018001d688     LIBCMT:wsetloca.obj
 0002:00009688       $unwind$_onexit$fin$0      000000018001d688     LIBCMT:wsetloca.obj
 0002:00009688       $unwind$fclose$fin$0       000000018001d688     LIBCMT:wsetloca.obj
 0002:00009688       $unwind$_ioinit$fin$0      000000018001d688     LIBCMT:wsetloca.obj
 0002:00009688       $unwind$_lseeki64$fin$0    000000018001d688     LIBCMT:wsetloca.obj
 0002:00009688       $unwind$fwprintf$fin$0     000000018001d688     LIBCMT:wsetloca.obj
 0002:00009688       $unwind$_initptd$fin$1     000000018001d688     LIBCMT:wsetloca.obj
 0002:00009688       $unwind$_write$fin$0       000000018001d688     LIBCMT:wsetloca.obj
 0002:00009688       $unwind$doexit$fin$0       000000018001d688     LIBCMT:wsetloca.obj
 0002:00009688       $unwind$_close$fin$0       000000018001d688     LIBCMT:wsetloca.obj
 0002:00009688       $unwind$fflush$fin$0       000000018001d688     LIBCMT:wsetloca.obj
 0002:00009688       $unwind$flsall$fin$1       000000018001d688     LIBCMT:wsetloca.obj
 0002:00009688       $unwind$_IsNonwritableInCurrentImage$filt$0 000000018001d688     LIBCMT:wsetloca.obj
 0002:00009688       $unwind$__updatetmbcinfo$fin$0 000000018001d688     LIBCMT:wsetloca.obj
 0002:00009688       $unwind$flsall$fin$0       000000018001d688     LIBCMT:wsetloca.obj
 0002:00009688       $unwind$__updatetlocinfo$fin$0 000000018001d688     LIBCMT:wsetloca.obj
 0002:00009688       $unwind$_freefls$fin$0     000000018001d688     LIBCMT:wsetloca.obj
 0002:00009688       $unwind$_setmbcp$fin$0     000000018001d688     LIBCMT:wsetloca.obj
 0002:00009688       $unwind$_initptd$fin$0     000000018001d688     LIBCMT:wsetloca.obj
 0002:00009690       $unwind$_ioinit            000000018001d690     LIBCMT:ioinit.obj
 0002:000096d8       $unwind$parse_cmdline      000000018001d6d8     LIBCMT:stdargv.obj
 0002:000096f4       $unwind$__security_init_cookie 000000018001d6f4     LIBCMT:gs_support.obj
 0002:00009700       $unwind$__crtCaptureCurrentContext 000000018001d700     LIBCMT:winapisupp.obj
 0002:0000970c       $unwind$__crtCapturePreviousContext 000000018001d70c     LIBCMT:winapisupp.obj
 0002:00009718       $unwind$_isctype_l         000000018001d718     LIBCMT:isctype.obj
 0002:00009728       $unwind$_atodbl_l          000000018001d728     LIBCMT:atodbl.obj
 0002:0000973c       $unwind$__crt_atoflt_l     000000018001d73c     LIBCMT:atodbl.obj
 0002:00009750       $unwind$_write             000000018001d750     LIBCMT:write.obj
 0002:0000977c       $unwind$_write_nolock      000000018001d77c     LIBCMT:write.obj
 0002:000097a0       $unwind$_lseeki64          000000018001d7a0     LIBCMT:lseeki64.obj
 0002:000097d0       $xdatasym                  000000018001d7d0     LIBCMT:strlen.obj
 0002:000097d4       $unwind$_wctomb_s_l        000000018001d7d4     LIBCMT:wctomb.obj
 0002:000097e4       $unwind$_mtinitlocknum     000000018001d7e4     LIBCMT:mlock.obj
 0002:0000980c       $unwind$_IsNonwritableInCurrentImage 000000018001d80c     LIBCMT:pesect.obj
 0002:00009830       $unwind$?terminate@@YAXXZ  000000018001d830     LIBCMT:hooks.obj
 0002:00009850       $unwind$_ftbuf             000000018001d850     LIBCMT:_sftbuf.obj
 0002:00009858       $unwind$_fcloseall         000000018001d858     LIBCMT:closeall.obj
 0002:00009880       $unwind$_commit            000000018001d880     LIBCMT:commit.obj
 0002:000098a8       $unwind$_woutput_l         000000018001d8a8     LIBCMT:woutput.obj
 0002:000098cc       $unwind$write_multi_char   000000018001d8cc     LIBCMT:woutput.obj
 0002:000098cc       $unwind$write_multi_char   000000018001d8cc     LIBCMT:woutput.obj
 0002:000098e0       $xdatasym                  000000018001d8e0     LIBCMT:jmpuwind.obj
 0002:000098f4       $unwind$__crtLCMapStringEx 000000018001d8f4     LIBCMT:winapinls.obj
 0002:00009908       $xdatasym                  000000018001d908     LIBCMT:fpsr.obj
 0002:00009910       $unwind$_cftoe2_l          000000018001d910     LIBCMT:cvt.obj
 0002:0000992c       $unwind$_cftoe_l           000000018001d92c     LIBCMT:cvt.obj
 0002:00009944       $unwind$_cftoa_l           000000018001d944     LIBCMT:cvt.obj
 0002:00009960       $unwind$__crtGetEnvironmentStringsA 000000018001d960     LIBCMT:cvt.obj
 0002:00009960       $unwind$_cftof2_l          000000018001d960     LIBCMT:cvt.obj
 0002:00009978       $unwind$_cftof_l           000000018001d978     LIBCMT:cvt.obj
 0002:00009990       $unwind$_cftog_l           000000018001d990     LIBCMT:cvt.obj
 0002:000099a8       $xdatasym                  000000018001d9a8     LIBCMT:strcmp.obj
 0002:000099ac       $unwind$?_Type_info_dtor@type_info@@CAXPEAV1@@Z 000000018001d9ac     LIBCMT:typname.obj
 0002:000099cc       $unwind$free               000000018001d9cc     LIBCMT:initnum.obj
 0002:000099cc       $unwind$__free_lconv_num   000000018001d9cc     LIBCMT:initnum.obj
 0002:000099d4       $unwind$__free_lc_time     000000018001d9d4     LIBCMT:inittime.obj
 0002:000099d4       $unwind$__free_lconv_mon   000000018001d9d4     LIBCMT:inittime.obj
 0002:000099dc       $unwind$__crtLCMapStringA  000000018001d9dc     LIBCMT:a_map.obj
 0002:000099ec       $unwind$?__crtLCMapStringA_stat@@YAHPEAUlocaleinfo_struct@@PEB_WKPEBDHPEADHHH@Z 000000018001d9ec     LIBCMT:a_map.obj
 0002:00009a14       $unwind$__crtGetStringTypeA 000000018001da14     LIBCMT:a_str.obj
 0002:00009a24       $unwind$?__crtGetStringTypeA_stat@@YAHPEAUlocaleinfo_struct@@KPEBDHPEAGHH@Z 000000018001da24     LIBCMT:a_str.obj
 0002:00009a50       $xdatasym                  000000018001da50     LIBCMT:memcmp.obj
 0002:00009a54       $unwind$?x_ismbbtype_l@@YAHPEAUlocaleinfo_struct@@IHH@Z 000000018001da54     LIBCMT:ismbbyte.obj
 0002:00009a54       $unwind$_stricmp_l         000000018001da54     LIBCMT:ismbbyte.obj
 0002:00009a64       $unwind$_ld12tod           000000018001da64     LIBCMT:intrncvt.obj
 0002:00009a64       $unwind$_ld12tof           000000018001da64     LIBCMT:intrncvt.obj
 0002:00009a88       $unwind$__strgtold12_l     000000018001da88     LIBCMT:strgtold.obj
 0002:00009aac       $unwind$_free_osfhnd       000000018001daac     LIBCMT:osfinfo.obj
 0002:00009aac       $unwind$_stbuf             000000018001daac     LIBCMT:osfinfo.obj
 0002:00009abc       $unwind$__lock_fhandle     000000018001dabc     LIBCMT:osfinfo.obj
 0002:00009ae8       $unwind$_mbtowc_l          000000018001dae8     LIBCMT:mbtowc.obj
 0002:00009b00       $xdatasym                  000000018001db00     LIBCMT:chkstk.obj
 0002:00009b08       $unwind$fclose             000000018001db08     LIBCMT:fclose.obj
 0002:00009b2c       $unwind$_fputwc_nolock     000000018001db2c     LIBCMT:fputwc.obj
 0002:00009b48       $unwind$strrchr            000000018001db48     LIBCMT:strrchr.obj
 0002:00009b50       $unwind$_fltout2           000000018001db50     LIBCMT:cfout.obj
 0002:00009b68       $unwind$__dtold            000000018001db68     LIBCMT:cfout.obj
 0002:00009b70       $unwind$__mtold12          000000018001db70     LIBCMT:mantold.obj
 0002:00009b88       $unwind$_close             000000018001db88     LIBCMT:close.obj
 0002:00009bb0       $unwind$_flswbuf           000000018001dbb0     LIBCMT:_flswbuf.obj
 0002:00009bc4       $unwind$$I10_OUTPUT        000000018001dbc4     LIBCMT:x10fout.obj
 0002:00009be8       $unwind$?_Xout_of_range@std@@YAXPEBD@Z 000000018001dbe8     libcpmt:xthrow.obj
 0002:00009be8       $unwind$__initconout       000000018001dbe8     libcpmt:xthrow.obj
 0002:00009be8       $unwind$?_Xlength_error@std@@YAXPEBD@Z 000000018001dbe8     libcpmt:xthrow.obj
 0002:00009be8       $unwind$_cfltcvt           000000018001dbe8     libcpmt:xthrow.obj
 0002:00009be8       $unwind$?_Xbad_alloc@std@@YAXXZ 000000018001dbe8     libcpmt:xthrow.obj
 0002:00009bf0       $unwind$__delayLoadHelper2 000000018001dbf0     DelayImp:delayhlp.obj
 0002:00009c08       $unwind$__DestructExceptionObject 000000018001dc08     LIBCMT:frame.obj
 0002:00009c28       $xdatasym                  000000018001dc28     LIBCMT:handlers.obj
 0002:0000ac20       .edata                     000000018001ec20     bcrypt_lib.exp
 0002:0000ac48       rgpv                       000000018001ec48     bcrypt_lib.exp
 0002:0000ac4c       rgszName                   000000018001ec4c     bcrypt_lib.exp
 0002:0000ac50       rgwOrd                     000000018001ec50     bcrypt_lib.exp
 0002:0000ac52       szName                     000000018001ec52     bcrypt_lib.exp
 0002:0000ac62       $N00001                    000000018001ec62     bcrypt_lib.exp
 0002:0000aedc       .idata$6                   000000018001eedc     kernel32:KERNEL32.dll
 0003:00000000       _assertstring              0000000180020000     LIBCMT:wassert.obj
 0003:00000050       dotdotdot                  0000000180020050     LIBCMT:wassert.obj
 0003:00000058       newline                    0000000180020058     LIBCMT:wassert.obj
 0003:00000060       dblnewline                 0000000180020060     LIBCMT:wassert.obj
 0003:00000090       errtable                   0000000180020090     LIBCMT:dosmap.obj
 0003:000001f8       ErrnoNoMem                 00000001800201f8     LIBCMT:dosmap.obj
 0003:000001fc       DoserrorNoMem              00000001800201fc     LIBCMT:dosmap.obj
 0003:000005d0       ?dazSupported@?1??_ctrlfp@@9@9 00000001800205d0     LIBCMT:fpctrl.obj
 0003:00000a18       __rgctypeflag              0000000180020a18     LIBCMT:mbctype.obj
 0003:00000a20       __rgcode_page_info         0000000180020a20     LIBCMT:mbctype.obj
 0003:00000f70       _ctype_loc_style           0000000180020f70     LIBCMT:wsetloca.obj
 0003:00000fd8       ?isPackaged@?1??__crtIsPackagedApp@@9@9 0000000180020fd8     LIBCMT:winapisupp.obj
 0003:00001030       _locktable                 0000000180021030     LIBCMT:mlock.obj
 0003:00001270       ?_names@?1??_get_fname@@9@9 0000000180021270     LIBCMT:fpexcept.obj
 0003:00001518       DoubleFormat               0000000180021518     LIBCMT:intrncvt.obj
 0003:00001530       FloatFormat                0000000180021530     LIBCMT:intrncvt.obj
 0003:00001850       _module                    0000000180021850     bcrypt_node.obj
 0003:00001ae8       __proc_attached            0000000180021ae8     LIBCMT:dllcrt0.obj
 0003:00001b00       GS_ExceptionRecord         0000000180021b00     LIBCMT:gs_report.obj
 0003:00001ba0       GS_ContextRecord           0000000180021ba0     LIBCMT:gs_report.obj
 0003:00002070       DebuggerWasPresent         0000000180022070     LIBCMT:gs_report.obj
 0003:00002100       ?outmsg@?8??_NMSG_WRITE@@9@9 0000000180022100     LIBCMT:crt0msg.obj
 0003:00002738       ctrlc_action               0000000180022738     LIBCMT:winsig.obj
 0003:00002740       ctrlbreak_action           0000000180022740     LIBCMT:winsig.obj
 0003:00002748       abort_action               0000000180022748     LIBCMT:winsig.obj
 0003:00002750       term_action                0000000180022750     LIBCMT:winsig.obj
 0003:00002758       ConsoleCtrlHandler_Installed 0000000180022758     LIBCMT:winsig.obj
 0003:00002760       ?pfnMessageBox@?1??__crtMessageBoxW@@9@9 0000000180022760     LIBCMT:crtmboxw.obj
 0003:00002768       ?pfnGetActiveWindow@?1??__crtMessageBoxW@@9@9 0000000180022768     LIBCMT:crtmboxw.obj
 0003:00002770       ?pfnGetLastActivePopup@?1??__crtMessageBoxW@@9@9 0000000180022770     LIBCMT:crtmboxw.obj
 0003:00002778       ?pfnGetProcessWindowStation@?1??__crtMessageBoxW@@9@9 0000000180022778     LIBCMT:crtmboxw.obj
 0003:00002780       ?pfnGetUserObjectInformation@?1??__crtMessageBoxW@@9@9 0000000180022780     LIBCMT:crtmboxw.obj
 0003:000027c0       fSystemSet                 00000001800227c0     LIBCMT:mbctype.obj
 0003:000029d0       ?_pgmname@?1??_setargv@@9@9 00000001800229d0     LIBCMT:stdargv.obj
 0003:00002ad8       __enable_percent_n         0000000180022ad8     LIBCMT:printf.obj
 0003:00002ae0       lclcritsects               0000000180022ae0     LIBCMT:mlock.obj
 0003:00002d18       g_pfnRtlGenRandom          0000000180022d18     LIBCMT:rand_s.obj
 0003:00002d30       __crtCallProc              0000000180022d30     LIBCMT:winapinls.obj
 0003:00002d38       __type_info_root_node      0000000180022d38     LIBCMT:typname.obj
 0003:00002da0       heap                       0000000180022da0     LIBCMT:undname.obj
 0003:00002dc8       allocator_arg              0000000180022dc8     libcpmt:syserror.obj
 0003:00002dc9       piecewise_construct        0000000180022dc9     libcpmt:syserror.obj
 0003:00002dca       _Tuple_alloc               0000000180022dca     libcpmt:xthrow.obj
 0003:00002dcb       ignore                     0000000180022dcb     libcpmt:xthrow.obj
 0003:00002dcc       allocator_arg              0000000180022dcc     libcpmt:xthrow.obj
 0003:00002dcd       piecewise_construct        0000000180022dcd     libcpmt:xthrow.obj
 0003:00002e08       allocator_arg              0000000180022e08     bcrypt_node.obj
 0003:00002e09       piecewise_construct        0000000180022e09     bcrypt_node.obj
 0004:00000000       $pdata$?Blowfish_encipher@@YAXPEAUBlowfishContext@@PEAI1@Z 0000000180024000     blowfish.obj
 0004:0000000c       $pdata$?Blowfish_expand0state@@YAXPEAUBlowfishContext@@PEBEG@Z 000000018002400c     blowfish.obj
 0004:00000018       $pdata$?Blowfish_expandstate@@YAXPEAUBlowfishContext@@PEBEG1G@Z 0000000180024018     blowfish.obj
 0004:00000024       $pdata$?bcrypt@@YAXPEBD0PEAD@Z 0000000180024024     bcrypt.obj
 0004:00000030       $pdata$0$?bcrypt@@YAXPEBD0PEAD@Z 0000000180024030     bcrypt.obj
 0004:0000003c       $pdata$1$?bcrypt@@YAXPEBD0PEAD@Z 000000018002403c     bcrypt.obj
 0004:00000048       $pdata$2$?bcrypt@@YAXPEBD0PEAD@Z 0000000180024048     bcrypt.obj
 0004:00000054       $pdata$3$?bcrypt@@YAXPEBD0PEAD@Z 0000000180024054     bcrypt.obj
 0004:00000060       $pdata$?encode_base64@@YAXPEAE0G@Z 0000000180024060     bcrypt.obj
 0004:0000006c       $pdata$0$?encode_base64@@YAXPEAE0G@Z 000000018002406c     bcrypt.obj
 0004:00000078       $pdata$2$?encode_base64@@YAXPEAE0G@Z 0000000180024078     bcrypt.obj
 0004:00000084       $pdata$4$?encode_base64@@YAXPEAE0G@Z 0000000180024084     bcrypt.obj
 0004:00000090       $pdata$5$?encode_base64@@YAXPEAE0G@Z 0000000180024090     bcrypt.obj
 0004:0000009c       $pdata$?FunctionCallbackWrapper@imp@Nan@@YAXAEBV?$FunctionCallbackInfo@VValue@v8@@@v8@@@Z 000000018002409c     bcrypt_node.obj
 0004:000000a8       $pdata$?New@?$Factory@VFunctionTemplate@v8@@@imp@Nan@@SA?AV?$Local@VFunctionTemplate@v8@@@v8@@P6AXAEBV?$FunctionCallbackInfo@VValue@v8@@@3@@ZV?$Local@VValue@v8@@@5@V?$Local@VSignature@v8@@@5@@Z 00000001800240a8     bcrypt_node.obj
 0004:000000b4       $pdata$0$?New@?$Factory@VFunctionTemplate@v8@@@imp@Nan@@SA?AV?$Local@VFunctionTemplate@v8@@@v8@@P6AXAEBV?$FunctionCallbackInfo@VValue@v8@@@3@@ZV?$Local@VValue@v8@@@5@V?$Local@VSignature@v8@@@5@@Z 00000001800240b4     bcrypt_node.obj
 0004:000000c0       $pdata$1$?New@?$Factory@VFunctionTemplate@v8@@@imp@Nan@@SA?AV?$Local@VFunctionTemplate@v8@@@v8@@P6AXAEBV?$FunctionCallbackInfo@VValue@v8@@@3@@ZV?$Local@VValue@v8@@@5@V?$Local@VSignature@v8@@@5@@Z 00000001800240c0     bcrypt_node.obj
 0004:000000cc       $pdata$?ThrowError@Nan@@YAXPEBD@Z 00000001800240cc     bcrypt_node.obj
 0004:000000d8       $pdata$?ThrowTypeError@Nan@@YAXPEBD@Z 00000001800240d8     bcrypt_node.obj
 0004:000000e4       $pdata$??0Utf8String@Nan@@QEAA@V?$Local@VValue@v8@@@v8@@@Z 00000001800240e4     bcrypt_node.obj
 0004:000000f0       $pdata$0$??0Utf8String@Nan@@QEAA@V?$Local@VValue@v8@@@v8@@@Z 00000001800240f0     bcrypt_node.obj
 0004:000000fc       $pdata$1$??0Utf8String@Nan@@QEAA@V?$Local@VValue@v8@@@v8@@@Z 00000001800240fc     bcrypt_node.obj
 0004:00000108       $pdata$??0Callback@Nan@@QEAA@AEBV?$Local@VFunction@v8@@@v8@@@Z 0000000180024108     bcrypt_node.obj
 0004:00000114       $pdata$?SetFunction@Callback@Nan@@QEAAXAEBV?$Local@VFunction@v8@@@v8@@@Z 0000000180024114     bcrypt_node.obj
 0004:00000120       $pdata$??0AsyncWorker@Nan@@QEAA@PEAVCallback@1@@Z 0000000180024120     bcrypt_node.obj
 0004:0000012c       $pdata$??1AsyncWorker@Nan@@UEAA@XZ 000000018002412c     bcrypt_node.obj
 0004:00000138       $pdata$?WorkComplete@AsyncWorker@Nan@@UEAAXXZ 0000000180024138     bcrypt_node.obj
 0004:00000144       $pdata$?HandleOKCallback@AsyncWorker@Nan@@MEAAXXZ 0000000180024144     bcrypt_node.obj
 0004:00000150       $pdata$?HandleErrorCallback@AsyncWorker@Nan@@MEAAXXZ 0000000180024150     bcrypt_node.obj
 0004:0000015c       $pdata$??_GAsyncWorker@Nan@@UEAAPEAXI@Z 000000018002415c     bcrypt_node.obj
 0004:00000168       $pdata$?AsyncExecuteComplete@Nan@@YAXPEAUuv_work_s@@@Z 0000000180024168     bcrypt_node.obj
 0004:00000174       $pdata$?Export@Nan@@YAXV?$Local@VObject@v8@@@v8@@PEBDP6AXAEBV?$FunctionCallbackInfo@VValue@v8@@@1@@Z@Z 0000000180024174     bcrypt_node.obj
 0004:00000180       $pdata$?ValidateSalt@?A0x134cc3bc@@YA_NPEBD@Z 0000000180024180     bcrypt_node.obj
 0004:0000018c       $pdata$??0SaltAsyncWorker@?A0x134cc3bc@@QEAA@PEAVCallback@Nan@@V?$basic_string@DU?$char_traits@D@std@@V?$allocator@D@2@@std@@_J@Z 000000018002418c     bcrypt_node.obj
 0004:00000198       $pdata$??1SaltAsyncWorker@?A0x134cc3bc@@UEAA@XZ 0000000180024198     bcrypt_node.obj
 0004:000001a4       $pdata$?Execute@SaltAsyncWorker@?A0x134cc3bc@@UEAAXXZ 00000001800241a4     bcrypt_node.obj
 0004:000001b0       $pdata$?HandleOKCallback@SaltAsyncWorker@?A0x134cc3bc@@UEAAXXZ 00000001800241b0     bcrypt_node.obj
 0004:000001bc       $pdata$??_GSaltAsyncWorker@?A0x134cc3bc@@UEAAPEAXI@Z 00000001800241bc     bcrypt_node.obj
 0004:000001c8       $pdata$?GenerateSalt@?A0x134cc3bc@@YAXAEBV?$FunctionCallbackInfo@VValue@v8@@@Nan@@@Z 00000001800241c8     bcrypt_node.obj
 0004:000001d4       $pdata$2$?GenerateSalt@?A0x134cc3bc@@YAXAEBV?$FunctionCallbackInfo@VValue@v8@@@Nan@@@Z 00000001800241d4     bcrypt_node.obj
 0004:000001e0       $pdata$3$?GenerateSalt@?A0x134cc3bc@@YAXAEBV?$FunctionCallbackInfo@VValue@v8@@@Nan@@@Z 00000001800241e0     bcrypt_node.obj
 0004:000001ec       $pdata$?GenerateSaltSync@?A0x134cc3bc@@YAXAEBV?$FunctionCallbackInfo@VValue@v8@@@Nan@@@Z 00000001800241ec     bcrypt_node.obj
 0004:000001f8       $pdata$0$?GenerateSaltSync@?A0x134cc3bc@@YAXAEBV?$FunctionCallbackInfo@VValue@v8@@@Nan@@@Z 00000001800241f8     bcrypt_node.obj
 0004:00000204       $pdata$1$?GenerateSaltSync@?A0x134cc3bc@@YAXAEBV?$FunctionCallbackInfo@VValue@v8@@@Nan@@@Z 0000000180024204     bcrypt_node.obj
 0004:00000210       $pdata$??0EncryptAsyncWorker@?A0x134cc3bc@@QEAA@PEAVCallback@Nan@@V?$basic_string@DU?$char_traits@D@std@@V?$allocator@D@2@@std@@1@Z 0000000180024210     bcrypt_node.obj
 0004:0000021c       $pdata$??1EncryptAsyncWorker@?A0x134cc3bc@@UEAA@XZ 000000018002421c     bcrypt_node.obj
 0004:00000228       $pdata$?Execute@EncryptAsyncWorker@?A0x134cc3bc@@UEAAXXZ 0000000180024228     bcrypt_node.obj
 0004:00000234       $pdata$?HandleOKCallback@EncryptAsyncWorker@?A0x134cc3bc@@UEAAXXZ 0000000180024234     bcrypt_node.obj
 0004:00000240       $pdata$??_GEncryptAsyncWorker@?A0x134cc3bc@@UEAAPEAXI@Z 0000000180024240     bcrypt_node.obj
 0004:0000024c       $pdata$?Encrypt@?A0x134cc3bc@@YAXAEBV?$FunctionCallbackInfo@VValue@v8@@@Nan@@@Z 000000018002424c     bcrypt_node.obj
 0004:00000258       $pdata$0$?Encrypt@?A0x134cc3bc@@YAXAEBV?$FunctionCallbackInfo@VValue@v8@@@Nan@@@Z 0000000180024258     bcrypt_node.obj
 0004:00000264       $pdata$1$?Encrypt@?A0x134cc3bc@@YAXAEBV?$FunctionCallbackInfo@VValue@v8@@@Nan@@@Z 0000000180024264     bcrypt_node.obj
 0004:00000270       $pdata$2$?Encrypt@?A0x134cc3bc@@YAXAEBV?$FunctionCallbackInfo@VValue@v8@@@Nan@@@Z 0000000180024270     bcrypt_node.obj
 0004:0000027c       $pdata$3$?Encrypt@?A0x134cc3bc@@YAXAEBV?$FunctionCallbackInfo@VValue@v8@@@Nan@@@Z 000000018002427c     bcrypt_node.obj
 0004:00000288       $pdata$?EncryptSync@?A0x134cc3bc@@YAXAEBV?$FunctionCallbackInfo@VValue@v8@@@Nan@@@Z 0000000180024288     bcrypt_node.obj
 0004:00000294       $pdata$??0CompareAsyncWorker@?A0x134cc3bc@@QEAA@PEAVCallback@Nan@@V?$basic_string@DU?$char_traits@D@std@@V?$allocator@D@2@@std@@1@Z 0000000180024294     bcrypt_node.obj
 0004:000002a0       $pdata$??1CompareAsyncWorker@?A0x134cc3bc@@UEAA@XZ 00000001800242a0     bcrypt_node.obj
 0004:000002ac       $pdata$?Execute@CompareAsyncWorker@?A0x134cc3bc@@UEAAXXZ 00000001800242ac     bcrypt_node.obj
 0004:000002b8       $pdata$1$?Execute@CompareAsyncWorker@?A0x134cc3bc@@UEAAXXZ 00000001800242b8     bcrypt_node.obj
 0004:000002c4       $pdata$2$?Execute@CompareAsyncWorker@?A0x134cc3bc@@UEAAXXZ 00000001800242c4     bcrypt_node.obj
 0004:000002d0       $pdata$?HandleOKCallback@CompareAsyncWorker@?A0x134cc3bc@@UEAAXXZ 00000001800242d0     bcrypt_node.obj
 0004:000002dc       $pdata$??_GCompareAsyncWorker@?A0x134cc3bc@@UEAAPEAXI@Z 00000001800242dc     bcrypt_node.obj
 0004:000002e8       $pdata$?Compare@?A0x134cc3bc@@YAXAEBV?$FunctionCallbackInfo@VValue@v8@@@Nan@@@Z 00000001800242e8     bcrypt_node.obj
 0004:000002f4       $pdata$0$?Compare@?A0x134cc3bc@@YAXAEBV?$FunctionCallbackInfo@VValue@v8@@@Nan@@@Z 00000001800242f4     bcrypt_node.obj
 0004:00000300       $pdata$1$?Compare@?A0x134cc3bc@@YAXAEBV?$FunctionCallbackInfo@VValue@v8@@@Nan@@@Z 0000000180024300     bcrypt_node.obj
 0004:0000030c       $pdata$2$?Compare@?A0x134cc3bc@@YAXAEBV?$FunctionCallbackInfo@VValue@v8@@@Nan@@@Z 000000018002430c     bcrypt_node.obj
 0004:00000318       $pdata$3$?Compare@?A0x134cc3bc@@YAXAEBV?$FunctionCallbackInfo@VValue@v8@@@Nan@@@Z 0000000180024318     bcrypt_node.obj
 0004:00000324       $pdata$?CompareSync@?A0x134cc3bc@@YAXAEBV?$FunctionCallbackInfo@VValue@v8@@@Nan@@@Z 0000000180024324     bcrypt_node.obj
 0004:00000330       $pdata$0$?CompareSync@?A0x134cc3bc@@YAXAEBV?$FunctionCallbackInfo@VValue@v8@@@Nan@@@Z 0000000180024330     bcrypt_node.obj
 0004:0000033c       $pdata$1$?CompareSync@?A0x134cc3bc@@YAXAEBV?$FunctionCallbackInfo@VValue@v8@@@Nan@@@Z 000000018002433c     bcrypt_node.obj
 0004:00000348       $pdata$2$?CompareSync@?A0x134cc3bc@@YAXAEBV?$FunctionCallbackInfo@VValue@v8@@@Nan@@@Z 0000000180024348     bcrypt_node.obj
 0004:00000354       $pdata$3$?CompareSync@?A0x134cc3bc@@YAXAEBV?$FunctionCallbackInfo@VValue@v8@@@Nan@@@Z 0000000180024354     bcrypt_node.obj
 0004:00000360       $pdata$?GetRounds@?A0x134cc3bc@@YAXAEBV?$FunctionCallbackInfo@VValue@v8@@@Nan@@@Z 0000000180024360     bcrypt_node.obj
 0004:0000036c       $pdata$?init@@YAXV?$Local@VObject@v8@@@v8@@@Z 000000018002436c     bcrypt_node.obj
 0004:00000378       $pdata$?assign@?$basic_string@DU?$char_traits@D@std@@V?$allocator@D@2@@std@@QEAAAEAV12@AEBV12@_K1@Z 0000000180024378     bcrypt_node.obj
 0004:00000384       $pdata$?assign@?$basic_string@DU?$char_traits@D@std@@V?$allocator@D@2@@std@@QEAAAEAV12@PEBD_K@Z 0000000180024384     bcrypt_node.obj
 0004:00000390       $pdata$?erase@?$basic_string@DU?$char_traits@D@std@@V?$allocator@D@2@@std@@QEAAAEAV12@_K0@Z 0000000180024390     bcrypt_node.obj
 0004:0000039c       $pdata$?_Copy@?$basic_string@DU?$char_traits@D@std@@V?$allocator@D@2@@std@@QEAAX_K0@Z 000000018002439c     bcrypt_node.obj
 0004:000003a8       $pdata$load_exe_hook       00000001800243a8     win_delay_load_hook.obj
 0004:000003cc       $pdata$_snprintf           00000001800243cc     LIBCMT:snprintf.obj
 0004:000003e4       $pdata$free                00000001800243e4     LIBCMT:free.obj
 0004:000003f0       $pdata$malloc              00000001800243f0     LIBCMT:malloc.obj
 0004:000003fc       $pdata$_wassert            00000001800243fc     LIBCMT:wassert.obj
 0004:00000408       $pdata$swprintf            0000000180024408     LIBCMT:wassert.obj
 0004:00000414       $pdata$__onexitinit        0000000180024414     LIBCMT:onexit.obj
 0004:00000420       $pdata$_onexit             0000000180024420     LIBCMT:onexit.obj
 0004:0000042c       $pdata$atexit              000000018002442c     LIBCMT:onexit.obj
 0004:00000438       $pdata$_purecall           0000000180024438     LIBCMT:purevirt.obj
 0004:00000444       $pdata$??0bad_alloc@std@@QEAA@AEBV01@@Z 0000000180024444     LIBCMT:new.obj
 0004:00000450       $pdata$??2@YAPEAX_K@Z      0000000180024450     LIBCMT:new.obj
 0004:0000045c       $pdata$??_Gbad_alloc@std@@UEAAPEAXI@Z 000000018002445c     LIBCMT:new.obj
 0004:00000468       $pdata$??0_LocaleUpdate@@QEAA@PEAUlocaleinfo_struct@@@Z 0000000180024468     LIBCMT:stricmp.obj
 0004:00000474       $pdata$_stricmp            0000000180024474     LIBCMT:stricmp.obj
 0004:00000480       $pdata$_stricmp_l          0000000180024480     LIBCMT:stricmp.obj
 0004:0000048c       $pdata$_CRT_INIT           000000018002448c     LIBCMT:dllcrt0.obj
 0004:00000498       $pdata$_DllMainCRTStartup  0000000180024498     LIBCMT:dllcrt0.obj
 0004:000004a4       $pdata$__DllMainCRTStartup 00000001800244a4     LIBCMT:dllcrt0.obj
 0004:000004b0       $pdata$__raise_securityfailure 00000001800244b0     LIBCMT:gs_report.obj
 0004:000004bc       $pdata$__report_gsfailure  00000001800244bc     LIBCMT:gs_report.obj
 0004:000004c8       $pdata$?strtoxl@@YAKPEAUlocaleinfo_struct@@PEBDPEAPEBDHH@Z 00000001800244c8     LIBCMT:strtol.obj
 0004:000004d4       $pdata$strtol              00000001800244d4     LIBCMT:strtol.obj
 0004:000004e0       $pdata$_call_reportfault   00000001800244e0     LIBCMT:invarg.obj
 0004:000004ec       $pdata$_invalid_parameter  00000001800244ec     LIBCMT:invarg.obj
 0004:000004f8       $pdata$_invalid_parameter_noinfo 00000001800244f8     LIBCMT:invarg.obj
 0004:00000504       $pdata$_invoke_watson      0000000180024504     LIBCMT:invarg.obj
 0004:00000510       $pdata$_flsbuf             0000000180024510     LIBCMT:_flsbuf.obj
 0004:0000051c       $pdata$_output_l           000000018002451c     LIBCMT:output.obj
 0004:00000528       $pdata$write_char          0000000180024528     LIBCMT:output.obj
 0004:00000534       $pdata$write_multi_char    0000000180024534     LIBCMT:output.obj
 0004:00000540       $pdata$write_string        0000000180024540     LIBCMT:output.obj
 0004:0000054c       $pdata$__doserrno          000000018002454c     LIBCMT:dosmap.obj
 0004:00000558       $pdata$_dosmaperr          0000000180024558     LIBCMT:dosmap.obj
 0004:00000564       $pdata$_errno              0000000180024564     LIBCMT:dosmap.obj
 0004:0000057c       $pdata$__isa_available_init 000000018002457c     LIBCMT:cpu_disp.obj
 0004:00000588       $pdata$_heap_init          0000000180024588     LIBCMT:heapinit.obj
 0004:00000594       $pdata$_callnewh           0000000180024594     LIBCMT:handler.obj
 0004:000005a0       $pdata$__crtCorExitProcess 00000001800245a0     LIBCMT:crt0dat.obj
 0004:000005ac       $pdata$__crtExitProcess    00000001800245ac     LIBCMT:crt0dat.obj
 0004:000005b8       $pdata$__freeCrtMemory     00000001800245b8     LIBCMT:crt0dat.obj
 0004:000005c4       $pdata$_amsg_exit          00000001800245c4     LIBCMT:crt0dat.obj
 0004:000005d0       $pdata$_cinit              00000001800245d0     LIBCMT:crt0dat.obj
 0004:000005dc       $pdata$_init_pointers      00000001800245dc     LIBCMT:crt0dat.obj
 0004:000005e8       $pdata$_initterm           00000001800245e8     LIBCMT:crt0dat.obj
 0004:000005f4       $pdata$_initterm_e         00000001800245f4     LIBCMT:crt0dat.obj
 0004:00000600       $pdata$doexit              0000000180024600     LIBCMT:crt0dat.obj
 0004:0000060c       $pdata$_FF_MSGBANNER       000000018002460c     LIBCMT:crt0msg.obj
 0004:00000618       $pdata$_NMSG_WRITE         0000000180024618     LIBCMT:crt0msg.obj
 0004:00000624       $pdata$memcpy_s            0000000180024624     LIBCMT:memcpy_s.obj
 0004:00000630       $pdata$wcscat_s            0000000180024630     LIBCMT:wcscat_s.obj
 0004:0000063c       $pdata$wcscpy_s            000000018002463c     LIBCMT:wcscpy_s.obj
 0004:00000648       $pdata$wcsncat_s           0000000180024648     LIBCMT:wcsncat_s.obj
 0004:00000654       $pdata$abort               0000000180024654     LIBCMT:abort.obj
 0004:00000660       $pdata$_set_error_mode     0000000180024660     LIBCMT:errmode.obj
 0004:0000066c       $pdata$_itow_s             000000018002466c     LIBCMT:xtows.obj
 0004:00000678       $pdata$xtow_s              0000000180024678     LIBCMT:xtows.obj
 0004:00000684       $pdata$__initstdio         0000000180024684     LIBCMT:_file.obj
 0004:00000690       $pdata$__endstdio          0000000180024690     LIBCMT:_file.obj
 0004:0000069c       $pdata$_lock_file          000000018002469c     LIBCMT:_file.obj
 0004:000006a8       $pdata$_lock_file2         00000001800246a8     LIBCMT:_file.obj
 0004:000006b4       $pdata$_fflush_nolock      00000001800246b4     LIBCMT:fflush.obj
 0004:000006c0       $pdata$_flush              00000001800246c0     LIBCMT:fflush.obj
 0004:000006cc       $pdata$fflush              00000001800246cc     LIBCMT:fflush.obj
 0004:000006d8       $pdata$flsall              00000001800246d8     LIBCMT:fflush.obj
 0004:000006e4       $pdata$setvbuf             00000001800246e4     LIBCMT:setvbuf.obj
 0004:000006f0       $pdata$fwprintf            00000001800246f0     LIBCMT:fwprintf.obj
 0004:000006fc       $pdata$_vswprintf_c_l      00000001800246fc     LIBCMT:vswprnc.obj
 0004:00000708       $pdata$_vswprintf_helper   0000000180024708     LIBCMT:vswprnc.obj
 0004:00000714       $pdata$raise               0000000180024714     LIBCMT:winsig.obj
 0004:00000720       $pdata$__crtMessageBoxW    0000000180024720     LIBCMT:crtmboxw.obj
 0004:0000072c       $pdata$__GSHandlerCheck    000000018002472c     LIBCMT:gshandler.obj
 0004:00000738       $pdata$__GSHandlerCheckCommon 0000000180024738     LIBCMT:gshandler.obj
 0004:00000744       $pdata$_msize              0000000180024744     LIBCMT:msize.obj
 0004:00000750       $pdata$_calloc_crt         0000000180024750     LIBCMT:crtheap.obj
 0004:0000075c       $pdata$_malloc_crt         000000018002475c     LIBCMT:crtheap.obj
 0004:00000768       $pdata$_realloc_crt        0000000180024768     LIBCMT:crtheap.obj
 0004:00000774       $pdata$__C_specific_handler 0000000180024774     LIBCMT:chandler.obj
 0004:00000780       $pdata$??0exception@std@@QEAA@AEBQEBD@Z 0000000180024780     LIBCMT:stdexcpt.obj
 0004:0000078c       $pdata$??0exception@std@@QEAA@AEBV01@@Z 000000018002478c     LIBCMT:stdexcpt.obj
 0004:00000798       $pdata$??4exception@std@@QEAAAEAV01@AEBV01@@Z 0000000180024798     LIBCMT:stdexcpt.obj
 0004:000007a4       $pdata$??_Gexception@std@@UEAAPEAXI@Z 00000001800247a4     LIBCMT:stdexcpt.obj
 0004:000007b0       $pdata$?_Copy_str@exception@std@@AEAAXPEBD@Z 00000001800247b0     LIBCMT:stdexcpt.obj
 0004:000007bc       $pdata$?_Tidy@exception@std@@AEAAXXZ 00000001800247bc     LIBCMT:stdexcpt.obj
 0004:000007c8       $pdata$_CxxThrowException  00000001800247c8     LIBCMT:throw.obj
 0004:000007d4       $pdata$??_Gtype_info@@UEAAPEAXI@Z 00000001800247d4     LIBCMT:typinfo.obj
 0004:000007e0       $pdata$__freetlocinfo      00000001800247e0     LIBCMT:localref.obj
 0004:000007ec       $pdata$__updatetlocinfo    00000001800247ec     LIBCMT:localref.obj
 0004:000007f8       $pdata$_updatetlocinfoEx_nolock 00000001800247f8     LIBCMT:localref.obj
 0004:00000804       $pdata$__initmbctable      0000000180024804     LIBCMT:mbctype.obj
 0004:00000810       $pdata$?getSystemCP@@YAHH@Z 0000000180024810     LIBCMT:mbctype.obj
 0004:0000081c       $pdata$?setSBCS@@YAXPEAUthreadmbcinfostruct@@@Z 000000018002481c     LIBCMT:mbctype.obj
 0004:00000828       $pdata$?setSBUpLow@@YAXPEAUthreadmbcinfostruct@@@Z 0000000180024828     LIBCMT:mbctype.obj
 0004:00000834       $pdata$__updatetmbcinfo    0000000180024834     LIBCMT:mbctype.obj
 0004:00000840       $pdata$_setmbcp            0000000180024840     LIBCMT:mbctype.obj
 0004:0000084c       $pdata$_setmbcp_nolock     000000018002484c     LIBCMT:mbctype.obj
 0004:00000858       $pdata$_tolower_l          0000000180024858     LIBCMT:tolower.obj
 0004:00000864       $pdata$_freefls            0000000180024864     LIBCMT:tidtable.obj
 0004:00000870       $pdata$_freeptd            0000000180024870     LIBCMT:tidtable.obj
 0004:0000087c       $pdata$_getptd             000000018002487c     LIBCMT:tidtable.obj
 0004:00000888       $pdata$_getptd_noexit      0000000180024888     LIBCMT:tidtable.obj
 0004:00000894       $pdata$_initptd            0000000180024894     LIBCMT:tidtable.obj
 0004:000008a0       $pdata$_mtinit             00000001800248a0     LIBCMT:tidtable.obj
 0004:000008ac       $pdata$_mtterm             00000001800248ac     LIBCMT:tidtable.obj
 0004:000008b8       $pdata$_locterm            00000001800248b8     LIBCMT:wsetloca.obj
 0004:000008c4       $pdata$_XcptFilter         00000001800248c4     LIBCMT:winxfltr.obj
 0004:000008d0       $pdata$_ioinit             00000001800248d0     LIBCMT:ioinit.obj
 0004:000008dc       $pdata$_ioterm             00000001800248dc     LIBCMT:ioinit.obj
 0004:000008e8       $pdata$_setargv            00000001800248e8     LIBCMT:stdargv.obj
 0004:000008f4       $pdata$parse_cmdline       00000001800248f4     LIBCMT:stdargv.obj
 0004:00000900       $pdata$_setenvp            0000000180024900     LIBCMT:stdenvp.obj
 0004:0000090c       $pdata$__security_init_cookie 000000018002490c     LIBCMT:gs_support.obj
 0004:00000918       $pdata$__crtGetEnvironmentStringsA 0000000180024918     LIBCMT:a_env.obj
 0004:00000924       $pdata$__crtCaptureCurrentContext 0000000180024924     LIBCMT:winapisupp.obj
 0004:00000930       $pdata$__crtCapturePreviousContext 0000000180024930     LIBCMT:winapisupp.obj
 0004:0000093c       $pdata$__crtInitializeCriticalSectionEx 000000018002493c     LIBCMT:winapisupp.obj
 0004:00000948       $pdata$__crtIsPackagedApp  0000000180024948     LIBCMT:winapisupp.obj
 0004:00000954       $pdata$__crtLoadWinApiPointers 0000000180024954     LIBCMT:winapisupp.obj
 0004:00000960       $pdata$__crtTerminateProcess 0000000180024960     LIBCMT:winapisupp.obj
 0004:0000096c       $pdata$__crtUnhandledException 000000018002496c     LIBCMT:winapisupp.obj
 0004:00000978       $pdata$_RTC_Initialize     0000000180024978     LIBCMT:initsect.obj
 0004:00000984       $pdata$_RTC_Terminate      0000000180024984     LIBCMT:initsect.obj
 0004:00000990       $pdata$_isctype_l          0000000180024990     LIBCMT:isctype.obj
 0004:0000099c       $pdata$__crt_atoflt_l      000000018002499c     LIBCMT:atodbl.obj
 0004:000009a8       $pdata$_atodbl_l           00000001800249a8     LIBCMT:atodbl.obj
 0004:000009b4       $pdata$_fileno             00000001800249b4     LIBCMT:fileno.obj
 0004:000009c0       $pdata$_isatty             00000001800249c0     LIBCMT:isatty.obj
 0004:000009cc       $pdata$_write              00000001800249cc     LIBCMT:write.obj
 0004:000009d8       $pdata$_write_nolock       00000001800249d8     LIBCMT:write.obj
 0004:000009e4       $pdata$_lseeki64           00000001800249e4     LIBCMT:lseeki64.obj
 0004:000009f0       $pdata$_lseeki64_nolock    00000001800249f0     LIBCMT:lseeki64.obj
 0004:000009fc       $pdata$_getbuf             00000001800249fc     LIBCMT:_getbuf.obj
 0004:00000a08       $pdata$_isleadbyte_l       0000000180024a08     LIBCMT:_wctype.obj
 0004:00000a14       $pdata$isleadbyte          0000000180024a14     LIBCMT:_wctype.obj
 0004:00000a2c       $pdata$_wctomb_s_l         0000000180024a2c     LIBCMT:wctomb.obj
 0004:00000a38       $pdata$wctomb_s            0000000180024a38     LIBCMT:wctomb.obj
 0004:00000a44       $pdata$_initp_misc_cfltcvt_tab 0000000180024a44     LIBCMT:cmiscdat.obj
 0004:00000a50       $pdata$_lock               0000000180024a50     LIBCMT:mlock.obj
 0004:00000a5c       $pdata$_mtdeletelocks      0000000180024a5c     LIBCMT:mlock.obj
 0004:00000a68       $pdata$_mtinitlocknum      0000000180024a68     LIBCMT:mlock.obj
 0004:00000a74       $pdata$_mtinitlocks        0000000180024a74     LIBCMT:mlock.obj
 0004:00000a80       $pdata$_IsNonwritableInCurrentImage 0000000180024a80     LIBCMT:pesect.obj
 0004:00000a8c       $pdata$?terminate@@YAXXZ   0000000180024a8c     LIBCMT:hooks.obj
 0004:00000a98       $pdata$_initp_eh_hooks     0000000180024a98     LIBCMT:hooks.obj
 0004:00000aa4       $pdata$_ftbuf              0000000180024aa4     LIBCMT:_sftbuf.obj
 0004:00000ab0       $pdata$_stbuf              0000000180024ab0     LIBCMT:_sftbuf.obj
 0004:00000abc       $pdata$wcsncpy_s           0000000180024abc     LIBCMT:wcsncpy_s.obj
 0004:00000ac8       $pdata$_fcloseall          0000000180024ac8     LIBCMT:closeall.obj
 0004:00000ad4       $pdata$_commit             0000000180024ad4     LIBCMT:commit.obj
 0004:00000ae0       $pdata$_freebuf            0000000180024ae0     LIBCMT:_freebuf.obj
 0004:00000aec       $pdata$_woutput_l          0000000180024aec     LIBCMT:woutput.obj
 0004:00000af8       $pdata$write_char          0000000180024af8     LIBCMT:woutput.obj
 0004:00000b04       $pdata$write_multi_char    0000000180024b04     LIBCMT:woutput.obj
 0004:00000b10       $pdata$write_string        0000000180024b10     LIBCMT:woutput.obj
 0004:00000b1c       $pdata$realloc             0000000180024b1c     LIBCMT:realloc.obj
 0004:00000b28       $pdata$_calloc_impl        0000000180024b28     LIBCMT:calloc_impl.obj
 0004:00000b64       $pdata$GetTableIndexFromLocaleName 0000000180024b64     LIBCMT:winapinls.obj
 0004:00000b70       $pdata$__crtDownlevelLocaleNameToLCID 0000000180024b70     LIBCMT:winapinls.obj
 0004:00000b7c       $pdata$__crtLCMapStringEx  0000000180024b7c     LIBCMT:winapinls.obj
 0004:00000b94       $pdata$_cfltcvt            0000000180024b94     LIBCMT:cvt.obj
 0004:00000ba0       $pdata$_cfltcvt_l          0000000180024ba0     LIBCMT:cvt.obj
 0004:00000bac       $pdata$_cftoa_l            0000000180024bac     LIBCMT:cvt.obj
 0004:00000bb8       $pdata$_cftoe2_l           0000000180024bb8     LIBCMT:cvt.obj
 0004:00000bc4       $pdata$_cftoe_l            0000000180024bc4     LIBCMT:cvt.obj
 0004:00000bd0       $pdata$_cftof2_l           0000000180024bd0     LIBCMT:cvt.obj
 0004:00000bdc       $pdata$_cftof_l            0000000180024bdc     LIBCMT:cvt.obj
 0004:00000be8       $pdata$_cftog_l            0000000180024be8     LIBCMT:cvt.obj
 0004:00000bf4       $pdata$_cropzeros_l        0000000180024bf4     LIBCMT:cvt.obj
 0004:00000c00       $pdata$_fassign_l          0000000180024c00     LIBCMT:cvt.obj
 0004:00000c0c       $pdata$_forcdecpt_l        0000000180024c0c     LIBCMT:cvt.obj
 0004:00000c18       $pdata$strcpy_s            0000000180024c18     LIBCMT:strcpy_s.obj
 0004:00000c30       $pdata$?_Type_info_dtor@type_info@@CAXPEAV1@@Z 0000000180024c30     LIBCMT:typname.obj
 0004:00000c3c       $pdata$__free_lconv_mon    0000000180024c3c     LIBCMT:initmon.obj
 0004:00000c48       $pdata$__free_lconv_num    0000000180024c48     LIBCMT:initnum.obj
 0004:00000c54       $pdata$__free_lc_time      0000000180024c54     LIBCMT:inittime.obj
 0004:00000c60       $pdata$?__crtLCMapStringA_stat@@YAHPEAUlocaleinfo_struct@@PEB_WKPEBDHPEADHHH@Z 0000000180024c60     LIBCMT:a_map.obj
 0004:00000c6c       $pdata$__crtLCMapStringA   0000000180024c6c     LIBCMT:a_map.obj
 0004:00000c78       $pdata$?__crtGetStringTypeA_stat@@YAHPEAUlocaleinfo_struct@@KPEBDHPEAGHH@Z 0000000180024c78     LIBCMT:a_str.obj
 0004:00000c84       $pdata$__crtGetStringTypeA 0000000180024c84     LIBCMT:a_str.obj
 0004:00000c9c       $pdata$?x_ismbbtype_l@@YAHPEAUlocaleinfo_struct@@IHH@Z 0000000180024c9c     LIBCMT:ismbbyte.obj
 0004:00000ca8       $pdata$_ld12tod            0000000180024ca8     LIBCMT:intrncvt.obj
 0004:00000cb4       $pdata$_ld12tof            0000000180024cb4     LIBCMT:intrncvt.obj
 0004:00000cc0       $pdata$__strgtold12_l      0000000180024cc0     LIBCMT:strgtold.obj
 0004:00000ccc       $pdata$__lock_fhandle      0000000180024ccc     LIBCMT:osfinfo.obj
 0004:00000cd8       $pdata$_free_osfhnd        0000000180024cd8     LIBCMT:osfinfo.obj
 0004:00000ce4       $pdata$_get_osfhandle      0000000180024ce4     LIBCMT:osfinfo.obj
 0004:00000cf0       $pdata$_mbtowc_l           0000000180024cf0     LIBCMT:mbtowc.obj
 0004:00000cfc       $pdata$_putwch_nolock      0000000180024cfc     LIBCMT:putwch.obj
 0004:00000d14       $pdata$_fclose_nolock      0000000180024d14     LIBCMT:fclose.obj
 0004:00000d20       $pdata$fclose              0000000180024d20     LIBCMT:fclose.obj
 0004:00000d2c       $pdata$_fputwc_nolock      0000000180024d2c     LIBCMT:fputwc.obj
 0004:00000d38       $pdata$isdigit             0000000180024d38     LIBCMT:_ctype.obj
 0004:00000d44       $pdata$strrchr             0000000180024d44     LIBCMT:strrchr.obj
 0004:00000d50       $pdata$_fptostr            0000000180024d50     LIBCMT:_fptostr.obj
 0004:00000d5c       $pdata$__dtold             0000000180024d5c     LIBCMT:cfout.obj
 0004:00000d68       $pdata$_fltout2            0000000180024d68     LIBCMT:cfout.obj
 0004:00000d74       $pdata$__mtold12           0000000180024d74     LIBCMT:mantold.obj
 0004:00000d80       $pdata$__termconout        0000000180024d80     LIBCMT:initcon.obj
 0004:00000d8c       $pdata$__initconout        0000000180024d8c     LIBCMT:initcon.obj
 0004:00000d98       $pdata$_close              0000000180024d98     LIBCMT:close.obj
 0004:00000da4       $pdata$_close_nolock       0000000180024da4     LIBCMT:close.obj
 0004:00000db0       $pdata$_flswbuf            0000000180024db0     LIBCMT:_flswbuf.obj
 0004:00000dbc       $pdata$$I10_OUTPUT         0000000180024dbc     LIBCMT:x10fout.obj
 0004:00000dc8       $pdata$??0length_error@std@@QEAA@AEBV01@@Z 0000000180024dc8     libcpmt:xthrow.obj
 0004:00000dd4       $pdata$??0logic_error@std@@QEAA@AEBV01@@Z 0000000180024dd4     libcpmt:xthrow.obj
 0004:00000de0       $pdata$??0out_of_range@std@@QEAA@AEBV01@@Z 0000000180024de0     libcpmt:xthrow.obj
 0004:00000dec       $pdata$??_Glength_error@std@@UEAAPEAXI@Z 0000000180024dec     libcpmt:xthrow.obj
 0004:00000dec       $pdata$??_Gout_of_range@std@@UEAAPEAXI@Z 0000000180024dec     libcpmt:xthrow.obj
 0004:00000dec       $pdata$??_Glogic_error@std@@UEAAPEAXI@Z 0000000180024dec     libcpmt:xthrow.obj
 0004:00000df8       $pdata$?_Xbad_alloc@std@@YAXXZ 0000000180024df8     libcpmt:xthrow.obj
 0004:00000e04       $pdata$?_Xlength_error@std@@YAXPEBD@Z 0000000180024e04     libcpmt:xthrow.obj
 0004:00000e10       $pdata$?_Xout_of_range@std@@YAXPEBD@Z 0000000180024e10     libcpmt:xthrow.obj
 0004:00000e1c       $pdata$__delayLoadHelper2  0000000180024e1c     DelayImp:delayhlp.obj
 0004:00000e28       $pdata$__DestructExceptionObject 0000000180024e28     LIBCMT:frame.obj
 0004:00000e40       $pdata$_onexit$fin$0       0000000180024e40     LIBCMT:onexit.obj
 0004:00000e4c       $pdata$_CRT_INIT$fin$0     0000000180024e4c     LIBCMT:dllcrt0.obj
 0004:00000e58       $pdata$__DllMainCRTStartup$filt$0 0000000180024e58     LIBCMT:dllcrt0.obj
 0004:00000e64       $pdata$doexit$fin$0        0000000180024e64     LIBCMT:crt0dat.obj
 0004:00000e70       $pdata$flsall$fin$0        0000000180024e70     LIBCMT:fflush.obj
 0004:00000e7c       $pdata$flsall$fin$1        0000000180024e7c     LIBCMT:fflush.obj
 0004:00000e88       $pdata$setvbuf$fin$0       0000000180024e88     LIBCMT:setvbuf.obj
 0004:00000e94       $pdata$fwprintf$fin$0      0000000180024e94     LIBCMT:fwprintf.obj
 0004:00000ea0       $pdata$raise$fin$0         0000000180024ea0     LIBCMT:winsig.obj
 0004:00000eac       $pdata$__updatetmbcinfo$fin$0 0000000180024eac     LIBCMT:mbctype.obj
 0004:00000eac       $pdata$_setmbcp$fin$0      0000000180024eac     LIBCMT:mbctype.obj
 0004:00000eb8       $pdata$_initptd$fin$1      0000000180024eb8     LIBCMT:tidtable.obj
 0004:00000eb8       $pdata$_freefls$fin$1      0000000180024eb8     LIBCMT:tidtable.obj
 0004:00000ec4       $pdata$_freefls$fin$0      0000000180024ec4     LIBCMT:tidtable.obj
 0004:00000ec4       $pdata$_initptd$fin$0      0000000180024ec4     LIBCMT:tidtable.obj
 0004:00000ed0       $pdata$__updatetlocinfo$fin$0 0000000180024ed0     LIBCMT:wsetloca.obj
 0004:00000ed0       $pdata$_locterm$fin$0      0000000180024ed0     LIBCMT:wsetloca.obj
 0004:00000edc       $pdata$_ioinit$fin$0       0000000180024edc     LIBCMT:ioinit.obj
 0004:00000ee8       $pdata$_lseeki64$fin$0     0000000180024ee8     LIBCMT:lseeki64.obj
 0004:00000ee8       $pdata$_write$fin$0        0000000180024ee8     LIBCMT:lseeki64.obj
 0004:00000ef4       $pdata$_mtinitlocknum$fin$0 0000000180024ef4     LIBCMT:mlock.obj
 0004:00000f00       $pdata$_IsNonwritableInCurrentImage$filt$0 0000000180024f00     LIBCMT:pesect.obj
 0004:00000f0c       $pdata$_fcloseall$fin$0    0000000180024f0c     LIBCMT:closeall.obj
 0004:00000f18       $pdata$?fin$0@?0??_Type_info_dtor@type_info@@CAXPEAV1@@Z@4HA 0000000180024f18     LIBCMT:typname.obj
 0004:00000f24       $pdata$__lock_fhandle$fin$0 0000000180024f24     LIBCMT:osfinfo.obj
 0004:00000f30       $pdata$fflush$fin$0        0000000180024f30     LIBCMT:fclose.obj
 0004:00000f30       $pdata$fclose$fin$0        0000000180024f30     LIBCMT:fclose.obj
 0004:00000f3c       $pdata$_close$fin$0        0000000180024f3c     LIBCMT:close.obj
 0004:00000f3c       $pdata$_commit$fin$0       0000000180024f3c     LIBCMT:close.obj
 0004:00000f48       $pdata$__DestructExceptionObject$filt$0 0000000180024f48     LIBCMT:frame.obj
 0005:00000060       $R000000                   0000000180025060     * linker generated manifest res *

 Exports

  ordinal    name

        1    _register_bcrypt_lib_
